
tagged_register_lrsc_test:     file format elf64-littleriscv


Disassembly of section .text:

0000000000010000 <_ftext>:
_ftext():
   10000:	00005197          	auipc	gp,0x5
   10004:	67018193          	addi	gp,gp,1648 # 15670 <_gp>
   10008:	00005297          	auipc	t0,0x5
   1000c:	ea828293          	addi	t0,t0,-344 # 14eb0 <__malloc_max_total_mem>
   10010:	00005317          	auipc	t1,0x5
   10014:	f3030313          	addi	t1,t1,-208 # 14f40 <_end>
   10018:	0002b023          	sd	zero,0(t0)
   1001c:	00828293          	addi	t0,t0,8
   10020:	fe62ece3          	bltu	t0,t1,10018 <_ftext+0x18>
   10024:	00000517          	auipc	a0,0x0
   10028:	3b450513          	addi	a0,a0,948 # 103d8 <__libc_fini_array>
   1002c:	1e4000ef          	jal	10210 <atexit>
   10030:	308000ef          	jal	10338 <__libc_init_array>
   10034:	00012503          	lw	a0,0(sp)
   10038:	00810593          	addi	a1,sp,8
   1003c:	00000613          	li	a2,0
   10040:	300030ef          	jal	13340 <main>
   10044:	1e00006f          	j	10224 <exit>

0000000000010048 <_fini>:
_init():
   10048:	00008067          	ret

000000000001004c <deregister_tm_clones>:
deregister_tm_clones():
   1004c:	80018713          	addi	a4,gp,-2048 # 14e70 <_edata>
   10050:	80718793          	addi	a5,gp,-2041 # 14e77 <_edata+0x7>
   10054:	40e787b3          	sub	a5,a5,a4
   10058:	00e00713          	li	a4,14
   1005c:	00f77a63          	bleu	a5,a4,10070 <deregister_tm_clones+0x24>
   10060:	00000293          	li	t0,0
   10064:	00028663          	beqz	t0,10070 <deregister_tm_clones+0x24>
   10068:	80018513          	addi	a0,gp,-2048 # 14e70 <_edata>
   1006c:	00028067          	jr	t0
   10070:	00008067          	ret

0000000000010074 <register_tm_clones>:
register_tm_clones():
   10074:	80018593          	addi	a1,gp,-2048 # 14e70 <_edata>
   10078:	80018793          	addi	a5,gp,-2048 # 14e70 <_edata>
   1007c:	40b787b3          	sub	a5,a5,a1
   10080:	4037d793          	srai	a5,a5,0x3
   10084:	03f7d593          	srli	a1,a5,0x3f
   10088:	00f585b3          	add	a1,a1,a5
   1008c:	4015d593          	srai	a1,a1,0x1
   10090:	00058a63          	beqz	a1,100a4 <register_tm_clones+0x30>
   10094:	00000293          	li	t0,0
   10098:	00028663          	beqz	t0,100a4 <register_tm_clones+0x30>
   1009c:	80018513          	addi	a0,gp,-2048 # 14e70 <_edata>
   100a0:	00028067          	jr	t0
   100a4:	00008067          	ret

00000000000100a8 <__do_global_dtors_aux>:
__do_global_dtors_aux():
   100a8:	ff010113          	addi	sp,sp,-16
   100ac:	00813023          	sd	s0,0(sp)
   100b0:	8601c783          	lbu	a5,-1952(gp) # 14ed0 <_bss_start>
   100b4:	00113423          	sd	ra,8(sp)
   100b8:	02079263          	bnez	a5,100dc <__do_global_dtors_aux+0x34>
   100bc:	f91ff0ef          	jal	1004c <deregister_tm_clones>
   100c0:	00000793          	li	a5,0
   100c4:	00078863          	beqz	a5,100d4 <__do_global_dtors_aux+0x2c>
   100c8:	00013537          	lui	a0,0x13
   100cc:	4f050513          	addi	a0,a0,1264 # 134f0 <__fini_array_end>
   100d0:	f31ef0ef          	jal	0 <_ftext-0x10000>
   100d4:	00100793          	li	a5,1
   100d8:	86f18023          	sb	a5,-1952(gp) # 14ed0 <_bss_start>
   100dc:	00813083          	ld	ra,8(sp)
   100e0:	00013403          	ld	s0,0(sp)
   100e4:	01010113          	addi	sp,sp,16
   100e8:	00008067          	ret

00000000000100ec <frame_dummy>:
frame_dummy():
   100ec:	ff010113          	addi	sp,sp,-16
   100f0:	00000793          	li	a5,0
   100f4:	00113423          	sd	ra,8(sp)
   100f8:	00078a63          	beqz	a5,1010c <frame_dummy+0x20>
   100fc:	00013537          	lui	a0,0x13
   10100:	86818593          	addi	a1,gp,-1944 # 14ed8 <object.3088>
   10104:	4f050513          	addi	a0,a0,1264 # 134f0 <__fini_array_end>
   10108:	ef9ef0ef          	jal	0 <_ftext-0x10000>
   1010c:	00014537          	lui	a0,0x14
   10110:	f2850513          	addi	a0,a0,-216 # 13f28 <__JCR_END__>
   10114:	00053783          	ld	a5,0(a0)
   10118:	00079863          	bnez	a5,10128 <frame_dummy+0x3c>
   1011c:	00813083          	ld	ra,8(sp)
   10120:	01010113          	addi	sp,sp,16
   10124:	f51ff06f          	j	10074 <register_tm_clones>
   10128:	00000793          	li	a5,0
   1012c:	fe0788e3          	beqz	a5,1011c <frame_dummy+0x30>
   10130:	000780e7          	jalr	a5
   10134:	fe9ff06f          	j	1011c <frame_dummy+0x30>

0000000000010138 <_Z8check_lrPl>:
_Z8check_lrPl():
   10138:	ff010113          	addi	sp,sp,-16
   1013c:	0000c737          	lui	a4,0xc
   10140:	00113423          	sd	ra,8(sp)
   10144:	eef70713          	addi	a4,a4,-273 # beef <_ftext-0x4111>
   10148:	00100793          	li	a5,1
   1014c:	00f767d7          	wrt	a5,a4,a5
   10150:	00f53023          	sd	a5,0(a0)
   10154:	100537af          	lr.d	a5,(a0)
   10158:	0007f557          	rdt	a0,a5
   1015c:	00100693          	li	a3,1
   10160:	02d51263          	bne	a0,a3,10184 <_Z8check_lrPl+0x4c>
   10164:	00e78a63          	beq	a5,a4,10178 <_Z8check_lrPl+0x40>
   10168:	00013537          	lui	a0,0x13
   1016c:	3f850513          	addi	a0,a0,1016 # 133f8 <main+0xb8>
   10170:	361000ef          	jal	10cd0 <puts>
   10174:	00000513          	li	a0,0
   10178:	00813083          	ld	ra,8(sp)
   1017c:	01010113          	addi	sp,sp,16
   10180:	00008067          	ret
   10184:	00013537          	lui	a0,0x13
   10188:	3d050513          	addi	a0,a0,976 # 133d0 <main+0x90>
   1018c:	345000ef          	jal	10cd0 <puts>
   10190:	00813083          	ld	ra,8(sp)
   10194:	00000513          	li	a0,0
   10198:	01010113          	addi	sp,sp,16
   1019c:	00008067          	ret

00000000000101a0 <_Z8check_scPl>:
_Z8check_scPl():
   101a0:	ff010113          	addi	sp,sp,-16
   101a4:	0000c737          	lui	a4,0xc
   101a8:	00113423          	sd	ra,8(sp)
   101ac:	eef70713          	addi	a4,a4,-273 # beef <_ftext-0x4111>
   101b0:	00200793          	li	a5,2
   101b4:	00f767d7          	wrt	a5,a4,a5
   101b8:	18f537af          	sc.d	a5,a5,(a0)
   101bc:	00053503          	ld	a0,0(a0)
   101c0:	000576d7          	rdt	a3,a0
   101c4:	0ff6f693          	andi	a3,a3,255
   101c8:	00078463          	beqz	a5,101d0 <_Z8check_scPl+0x30>
   101cc:	02e51a63          	bne	a0,a4,10200 <_Z8check_scPl+0x60>
   101d0:	00200793          	li	a5,2
   101d4:	02f68063          	beq	a3,a5,101f4 <_Z8check_scPl+0x54>
   101d8:	00013537          	lui	a0,0x13
   101dc:	44850513          	addi	a0,a0,1096 # 13448 <main+0x108>
   101e0:	2f1000ef          	jal	10cd0 <puts>
   101e4:	00813083          	ld	ra,8(sp)
   101e8:	00000513          	li	a0,0
   101ec:	01010113          	addi	sp,sp,16
   101f0:	00008067          	ret
   101f4:	00813083          	ld	ra,8(sp)
   101f8:	01010113          	addi	sp,sp,16
   101fc:	00008067          	ret
   10200:	00013537          	lui	a0,0x13
   10204:	42050513          	addi	a0,a0,1056 # 13420 <main+0xe0>
   10208:	2c9000ef          	jal	10cd0 <puts>
   1020c:	fd9ff06f          	j	101e4 <_Z8check_scPl+0x44>

0000000000010210 <atexit>:
atexit():
/home/lucas/Documents/summerwork2015/riscv-material/riscv-tools/riscv-gnu-toolchain/build/src/newlib-gcc/newlib/libc/stdlib/atexit.c:65
   10210:	00050593          	mv	a1,a0
   10214:	00000693          	li	a3,0
   10218:	00000613          	li	a2,0
   1021c:	00000513          	li	a0,0
   10220:	3890006f          	j	10da8 <__register_exitproc>

0000000000010224 <exit>:
exit():
/home/lucas/Documents/summerwork2015/riscv-material/riscv-tools/riscv-gnu-toolchain/build/src/newlib-gcc/newlib/libc/stdlib/exit.c:60
   10224:	ff010113          	addi	sp,sp,-16
/home/lucas/Documents/summerwork2015/riscv-material/riscv-tools/riscv-gnu-toolchain/build/src/newlib-gcc/newlib/libc/stdlib/exit.c:61
   10228:	00000593          	li	a1,0
/home/lucas/Documents/summerwork2015/riscv-material/riscv-tools/riscv-gnu-toolchain/build/src/newlib-gcc/newlib/libc/stdlib/exit.c:60
   1022c:	00813023          	sd	s0,0(sp)
   10230:	00113423          	sd	ra,8(sp)
   10234:	00050413          	mv	s0,a0
/home/lucas/Documents/summerwork2015/riscv-material/riscv-tools/riscv-gnu-toolchain/build/src/newlib-gcc/newlib/libc/stdlib/exit.c:61
   10238:	475000ef          	jal	10eac <__call_exitprocs>
/home/lucas/Documents/summerwork2015/riscv-material/riscv-tools/riscv-gnu-toolchain/build/src/newlib-gcc/newlib/libc/stdlib/exit.c:63
   1023c:	8081b503          	ld	a0,-2040(gp) # 14e78 <_global_impure_ptr>
   10240:	05853783          	ld	a5,88(a0)
   10244:	00078463          	beqz	a5,1024c <exit+0x28>
/home/lucas/Documents/summerwork2015/riscv-material/riscv-tools/riscv-gnu-toolchain/build/src/newlib-gcc/newlib/libc/stdlib/exit.c:64
   10248:	000780e7          	jalr	a5
/home/lucas/Documents/summerwork2015/riscv-material/riscv-tools/riscv-gnu-toolchain/build/src/newlib-gcc/newlib/libc/stdlib/exit.c:65
   1024c:	00040513          	mv	a0,s0
   10250:	0cc030ef          	jal	1331c <_exit>

0000000000010254 <_fwrite_r>:
_fwrite_r():
/home/lucas/Documents/summerwork2015/riscv-material/riscv-tools/riscv-gnu-toolchain/build/src/newlib-gcc/newlib/libc/stdio/fwrite.c:104
   10254:	fa010113          	addi	sp,sp,-96
   10258:	04913423          	sd	s1,72(sp)
/home/lucas/Documents/summerwork2015/riscv-material/riscv-tools/riscv-gnu-toolchain/build/src/newlib-gcc/newlib/libc/stdio/fwrite.c:110
   1025c:	02c684b3          	mul	s1,a3,a2
/home/lucas/Documents/summerwork2015/riscv-material/riscv-tools/riscv-gnu-toolchain/build/src/newlib-gcc/newlib/libc/stdio/fwrite.c:111
   10260:	02010793          	addi	a5,sp,32
   10264:	00f13823          	sd	a5,16(sp)
/home/lucas/Documents/summerwork2015/riscv-material/riscv-tools/riscv-gnu-toolchain/build/src/newlib-gcc/newlib/libc/stdio/fwrite.c:112
   10268:	00100793          	li	a5,1
/home/lucas/Documents/summerwork2015/riscv-material/riscv-tools/riscv-gnu-toolchain/build/src/newlib-gcc/newlib/libc/stdio/fwrite.c:104
   1026c:	04813823          	sd	s0,80(sp)
   10270:	05213023          	sd	s2,64(sp)
   10274:	03313c23          	sd	s3,56(sp)
   10278:	04113c23          	sd	ra,88(sp)
   1027c:	00060993          	mv	s3,a2
   10280:	00068413          	mv	s0,a3
   10284:	00050913          	mv	s2,a0
/home/lucas/Documents/summerwork2015/riscv-material/riscv-tools/riscv-gnu-toolchain/build/src/newlib-gcc/newlib/libc/stdio/fwrite.c:109
   10288:	02b13023          	sd	a1,32(sp)
/home/lucas/Documents/summerwork2015/riscv-material/riscv-tools/riscv-gnu-toolchain/build/src/newlib-gcc/newlib/libc/stdio/fwrite.c:112
   1028c:	00f12c23          	sw	a5,24(sp)
/home/lucas/Documents/summerwork2015/riscv-material/riscv-tools/riscv-gnu-toolchain/build/src/newlib-gcc/newlib/libc/stdio/fwrite.c:110
   10290:	02913423          	sd	s1,40(sp)
   10294:	00912e23          	sw	s1,28(sp)
/home/lucas/Documents/summerwork2015/riscv-material/riscv-tools/riscv-gnu-toolchain/build/src/newlib-gcc/newlib/libc/stdio/fwrite.c:120
   10298:	00050663          	beqz	a0,102a4 <_fwrite_r+0x50>
/home/lucas/Documents/summerwork2015/riscv-material/riscv-tools/riscv-gnu-toolchain/build/src/newlib-gcc/newlib/libc/stdio/fwrite.c:120 (discriminator 1)
   1029c:	05052783          	lw	a5,80(a0)
   102a0:	06078863          	beqz	a5,10310 <_fwrite_r+0xbc>
/home/lucas/Documents/summerwork2015/riscv-material/riscv-tools/riscv-gnu-toolchain/build/src/newlib-gcc/newlib/libc/stdio/fwrite.c:123
   102a4:	01071683          	lh	a3,16(a4)
   102a8:	03269793          	slli	a5,a3,0x32
   102ac:	0207c263          	bltz	a5,102d0 <_fwrite_r+0x7c>
/home/lucas/Documents/summerwork2015/riscv-material/riscv-tools/riscv-gnu-toolchain/build/src/newlib-gcc/newlib/libc/stdio/fwrite.c:123 (discriminator 1)
   102b0:	0a472583          	lw	a1,164(a4)
   102b4:	ffffe7b7          	lui	a5,0xffffe
   102b8:	00002637          	lui	a2,0x2
   102bc:	fff7879b          	addiw	a5,a5,-1
   102c0:	00c6e6b3          	or	a3,a3,a2
   102c4:	00f5f7b3          	and	a5,a1,a5
   102c8:	00d71823          	sh	a3,16(a4)
   102cc:	0af72223          	sw	a5,164(a4)
/home/lucas/Documents/summerwork2015/riscv-material/riscv-tools/riscv-gnu-toolchain/build/src/newlib-gcc/newlib/libc/stdio/fwrite.c:124
   102d0:	01010613          	addi	a2,sp,16
   102d4:	00070593          	mv	a1,a4
   102d8:	00090513          	mv	a0,s2
   102dc:	4f8010ef          	jal	117d4 <__sfvwrite_r>
   102e0:	00050863          	beqz	a0,102f0 <_fwrite_r+0x9c>
/home/lucas/Documents/summerwork2015/riscv-material/riscv-tools/riscv-gnu-toolchain/build/src/newlib-gcc/newlib/libc/stdio/fwrite.c:130
   102e4:	01c12403          	lw	s0,28(sp)
   102e8:	40848433          	sub	s0,s1,s0
   102ec:	03345433          	divu	s0,s0,s3
/home/lucas/Documents/summerwork2015/riscv-material/riscv-tools/riscv-gnu-toolchain/build/src/newlib-gcc/newlib/libc/stdio/fwrite.c:131
   102f0:	05813083          	ld	ra,88(sp)
   102f4:	00040513          	mv	a0,s0
   102f8:	04813483          	ld	s1,72(sp)
   102fc:	05013403          	ld	s0,80(sp)
   10300:	04013903          	ld	s2,64(sp)
   10304:	03813983          	ld	s3,56(sp)
   10308:	06010113          	addi	sp,sp,96
   1030c:	00008067          	ret
/home/lucas/Documents/summerwork2015/riscv-material/riscv-tools/riscv-gnu-toolchain/build/src/newlib-gcc/newlib/libc/stdio/fwrite.c:120 (discriminator 2)
   10310:	00e13423          	sd	a4,8(sp)
   10314:	05c010ef          	jal	11370 <__sinit>
   10318:	00813703          	ld	a4,8(sp)
   1031c:	f89ff06f          	j	102a4 <_fwrite_r+0x50>

0000000000010320 <fwrite>:
fwrite():
/home/lucas/Documents/summerwork2015/riscv-material/riscv-tools/riscv-gnu-toolchain/build/src/newlib-gcc/newlib/libc/stdio/fwrite.c:141
   10320:	00068713          	mv	a4,a3
   10324:	00060693          	mv	a3,a2
   10328:	00058613          	mv	a2,a1
   1032c:	00050593          	mv	a1,a0
   10330:	8101b503          	ld	a0,-2032(gp) # 14e80 <_impure_ptr>
   10334:	f21ff06f          	j	10254 <_fwrite_r>

0000000000010338 <__libc_init_array>:
__libc_init_array():
/home/lucas/Documents/summerwork2015/riscv-material/riscv-tools/riscv-gnu-toolchain/build/src/newlib-gcc/newlib/libc/misc/init.c:32
   10338:	fe010113          	addi	sp,sp,-32
   1033c:	00813823          	sd	s0,16(sp)
/home/lucas/Documents/summerwork2015/riscv-material/riscv-tools/riscv-gnu-toolchain/build/src/newlib-gcc/newlib/libc/misc/init.c:36
   10340:	000137b7          	lui	a5,0x13
   10344:	00013437          	lui	s0,0x13
/home/lucas/Documents/summerwork2015/riscv-material/riscv-tools/riscv-gnu-toolchain/build/src/newlib-gcc/newlib/libc/misc/init.c:32
   10348:	01213023          	sd	s2,0(sp)
/home/lucas/Documents/summerwork2015/riscv-material/riscv-tools/riscv-gnu-toolchain/build/src/newlib-gcc/newlib/libc/misc/init.c:36
   1034c:	4da78793          	addi	a5,a5,1242 # 134da <_etext>
   10350:	4da40913          	addi	s2,s0,1242 # 134da <_etext>
   10354:	41278933          	sub	s2,a5,s2
   10358:	40395913          	srai	s2,s2,0x3
/home/lucas/Documents/summerwork2015/riscv-material/riscv-tools/riscv-gnu-toolchain/build/src/newlib-gcc/newlib/libc/misc/init.c:32
   1035c:	00913423          	sd	s1,8(sp)
   10360:	00113c23          	sd	ra,24(sp)
   10364:	4da40413          	addi	s0,s0,1242
   10368:	00000493          	li	s1,0
/home/lucas/Documents/summerwork2015/riscv-material/riscv-tools/riscv-gnu-toolchain/build/src/newlib-gcc/newlib/libc/misc/init.c:37
   1036c:	00090c63          	beqz	s2,10384 <__libc_init_array+0x4c>
/home/lucas/Documents/summerwork2015/riscv-material/riscv-tools/riscv-gnu-toolchain/build/src/newlib-gcc/newlib/libc/misc/init.c:38 (discriminator 3)
   10370:	00043783          	ld	a5,0(s0)
/home/lucas/Documents/summerwork2015/riscv-material/riscv-tools/riscv-gnu-toolchain/build/src/newlib-gcc/newlib/libc/misc/init.c:37
   10374:	00148493          	addi	s1,s1,1
   10378:	00840413          	addi	s0,s0,8
/home/lucas/Documents/summerwork2015/riscv-material/riscv-tools/riscv-gnu-toolchain/build/src/newlib-gcc/newlib/libc/misc/init.c:38
   1037c:	000780e7          	jalr	a5
/home/lucas/Documents/summerwork2015/riscv-material/riscv-tools/riscv-gnu-toolchain/build/src/newlib-gcc/newlib/libc/misc/init.c:37
   10380:	fe9918e3          	bne	s2,s1,10370 <__libc_init_array+0x38>
/home/lucas/Documents/summerwork2015/riscv-material/riscv-tools/riscv-gnu-toolchain/build/src/newlib-gcc/newlib/libc/misc/init.c:42
   10384:	00013437          	lui	s0,0x13
/home/lucas/Documents/summerwork2015/riscv-material/riscv-tools/riscv-gnu-toolchain/build/src/newlib-gcc/newlib/libc/misc/init.c:40
   10388:	cc1ff0ef          	jal	10048 <_fini>
/home/lucas/Documents/summerwork2015/riscv-material/riscv-tools/riscv-gnu-toolchain/build/src/newlib-gcc/newlib/libc/misc/init.c:42
   1038c:	000137b7          	lui	a5,0x13
   10390:	4e040913          	addi	s2,s0,1248 # 134e0 <__frame_dummy_init_array_entry>
   10394:	4e878793          	addi	a5,a5,1256 # 134e8 <__init_array_end>
   10398:	41278933          	sub	s2,a5,s2
   1039c:	40395913          	srai	s2,s2,0x3
   103a0:	4e040413          	addi	s0,s0,1248
/home/lucas/Documents/summerwork2015/riscv-material/riscv-tools/riscv-gnu-toolchain/build/src/newlib-gcc/newlib/libc/misc/init.c:43
   103a4:	00000493          	li	s1,0
   103a8:	00090c63          	beqz	s2,103c0 <__libc_init_array+0x88>
/home/lucas/Documents/summerwork2015/riscv-material/riscv-tools/riscv-gnu-toolchain/build/src/newlib-gcc/newlib/libc/misc/init.c:44 (discriminator 3)
   103ac:	00043783          	ld	a5,0(s0)
/home/lucas/Documents/summerwork2015/riscv-material/riscv-tools/riscv-gnu-toolchain/build/src/newlib-gcc/newlib/libc/misc/init.c:43
   103b0:	00148493          	addi	s1,s1,1
   103b4:	00840413          	addi	s0,s0,8
/home/lucas/Documents/summerwork2015/riscv-material/riscv-tools/riscv-gnu-toolchain/build/src/newlib-gcc/newlib/libc/misc/init.c:44
   103b8:	000780e7          	jalr	a5
/home/lucas/Documents/summerwork2015/riscv-material/riscv-tools/riscv-gnu-toolchain/build/src/newlib-gcc/newlib/libc/misc/init.c:43
   103bc:	fe9918e3          	bne	s2,s1,103ac <__libc_init_array+0x74>
/home/lucas/Documents/summerwork2015/riscv-material/riscv-tools/riscv-gnu-toolchain/build/src/newlib-gcc/newlib/libc/misc/init.c:45
   103c0:	01813083          	ld	ra,24(sp)
   103c4:	01013403          	ld	s0,16(sp)
   103c8:	00813483          	ld	s1,8(sp)
   103cc:	00013903          	ld	s2,0(sp)
   103d0:	02010113          	addi	sp,sp,32
   103d4:	00008067          	ret

00000000000103d8 <__libc_fini_array>:
__libc_fini_array():
/home/lucas/Documents/summerwork2015/riscv-material/riscv-tools/riscv-gnu-toolchain/build/src/newlib-gcc/newlib/libc/misc/init.c:50
   103d8:	fe010113          	addi	sp,sp,-32
   103dc:	00813823          	sd	s0,16(sp)
   103e0:	00913423          	sd	s1,8(sp)
/home/lucas/Documents/summerwork2015/riscv-material/riscv-tools/riscv-gnu-toolchain/build/src/newlib-gcc/newlib/libc/misc/init.c:54
   103e4:	00013437          	lui	s0,0x13
   103e8:	000134b7          	lui	s1,0x13
   103ec:	4e848493          	addi	s1,s1,1256 # 134e8 <__init_array_end>
   103f0:	4f040413          	addi	s0,s0,1264 # 134f0 <__fini_array_end>
   103f4:	40940433          	sub	s0,s0,s1
   103f8:	ff840793          	addi	a5,s0,-8
   103fc:	40345413          	srai	s0,s0,0x3
/home/lucas/Documents/summerwork2015/riscv-material/riscv-tools/riscv-gnu-toolchain/build/src/newlib-gcc/newlib/libc/misc/init.c:50
   10400:	00113c23          	sd	ra,24(sp)
   10404:	009784b3          	add	s1,a5,s1
/home/lucas/Documents/summerwork2015/riscv-material/riscv-tools/riscv-gnu-toolchain/build/src/newlib-gcc/newlib/libc/misc/init.c:55
   10408:	00040c63          	beqz	s0,10420 <__libc_fini_array+0x48>
/home/lucas/Documents/summerwork2015/riscv-material/riscv-tools/riscv-gnu-toolchain/build/src/newlib-gcc/newlib/libc/misc/init.c:56 (discriminator 3)
   1040c:	0004b783          	ld	a5,0(s1)
   10410:	fff40413          	addi	s0,s0,-1
   10414:	ff848493          	addi	s1,s1,-8
   10418:	000780e7          	jalr	a5
/home/lucas/Documents/summerwork2015/riscv-material/riscv-tools/riscv-gnu-toolchain/build/src/newlib-gcc/newlib/libc/misc/init.c:55
   1041c:	fe0418e3          	bnez	s0,1040c <__libc_fini_array+0x34>
/home/lucas/Documents/summerwork2015/riscv-material/riscv-tools/riscv-gnu-toolchain/build/src/newlib-gcc/newlib/libc/misc/init.c:59
   10420:	01813083          	ld	ra,24(sp)
   10424:	01013403          	ld	s0,16(sp)
   10428:	00813483          	ld	s1,8(sp)
   1042c:	02010113          	addi	sp,sp,32
/home/lucas/Documents/summerwork2015/riscv-material/riscv-tools/riscv-gnu-toolchain/build/src/newlib-gcc/newlib/libc/misc/init.c:58
   10430:	c19ff06f          	j	10048 <_fini>

0000000000010434 <malloc>:
malloc():
/home/lucas/Documents/summerwork2015/riscv-material/riscv-tools/riscv-gnu-toolchain/build/src/newlib-gcc/newlib/libc/stdlib/malloc.c:215
   10434:	00050593          	mv	a1,a0
   10438:	8101b503          	ld	a0,-2032(gp) # 14e80 <_impure_ptr>
   1043c:	0100006f          	j	1044c <_malloc_r>

0000000000010440 <free>:
free():
/home/lucas/Documents/summerwork2015/riscv-material/riscv-tools/riscv-gnu-toolchain/build/src/newlib-gcc/newlib/libc/stdlib/malloc.c:222
   10440:	00050593          	mv	a1,a0
   10444:	8101b503          	ld	a0,-2032(gp) # 14e80 <_impure_ptr>
   10448:	0800106f          	j	114c8 <_free_r>

000000000001044c <_malloc_r>:
_malloc_r():
/home/lucas/Documents/summerwork2015/riscv-material/riscv-tools/riscv-gnu-toolchain/build/src/newlib-gcc/newlib/libc/stdlib/mallocr.c:2323
   1044c:	fa010113          	addi	sp,sp,-96
   10450:	04913423          	sd	s1,72(sp)
/home/lucas/Documents/summerwork2015/riscv-material/riscv-tools/riscv-gnu-toolchain/build/src/newlib-gcc/newlib/libc/stdlib/mallocr.c:2343
   10454:	02e00793          	li	a5,46
   10458:	01758493          	addi	s1,a1,23
/home/lucas/Documents/summerwork2015/riscv-material/riscv-tools/riscv-gnu-toolchain/build/src/newlib-gcc/newlib/libc/stdlib/mallocr.c:2323
   1045c:	03313c23          	sd	s3,56(sp)
   10460:	04113c23          	sd	ra,88(sp)
   10464:	04813823          	sd	s0,80(sp)
   10468:	05213023          	sd	s2,64(sp)
   1046c:	03413823          	sd	s4,48(sp)
   10470:	03513423          	sd	s5,40(sp)
   10474:	03613023          	sd	s6,32(sp)
   10478:	01713c23          	sd	s7,24(sp)
   1047c:	01813823          	sd	s8,16(sp)
   10480:	01913423          	sd	s9,8(sp)
   10484:	00050993          	mv	s3,a0
/home/lucas/Documents/summerwork2015/riscv-material/riscv-tools/riscv-gnu-toolchain/build/src/newlib-gcc/newlib/libc/stdlib/mallocr.c:2343
   10488:	1c97fa63          	bleu	s1,a5,1065c <_malloc_r+0x210>
/home/lucas/Documents/summerwork2015/riscv-material/riscv-tools/riscv-gnu-toolchain/build/src/newlib-gcc/newlib/libc/stdlib/mallocr.c:2346 (discriminator 1)
   1048c:	800007b7          	lui	a5,0x80000
/home/lucas/Documents/summerwork2015/riscv-material/riscv-tools/riscv-gnu-toolchain/build/src/newlib-gcc/newlib/libc/stdlib/mallocr.c:2343
   10490:	ff04f493          	andi	s1,s1,-16
/home/lucas/Documents/summerwork2015/riscv-material/riscv-tools/riscv-gnu-toolchain/build/src/newlib-gcc/newlib/libc/stdlib/mallocr.c:2346
   10494:	fff7c793          	not	a5,a5
   10498:	2497ee63          	bltu	a5,s1,106f4 <_malloc_r+0x2a8>
   1049c:	24b4ec63          	bltu	s1,a1,106f4 <_malloc_r+0x2a8>
/home/lucas/Documents/summerwork2015/riscv-material/riscv-tools/riscv-gnu-toolchain/build/src/newlib-gcc/newlib/libc/stdlib/mallocr.c:2352
   104a0:	770000ef          	jal	10c10 <__malloc_lock>
/home/lucas/Documents/summerwork2015/riscv-material/riscv-tools/riscv-gnu-toolchain/build/src/newlib-gcc/newlib/libc/stdlib/mallocr.c:2356
   104a4:	1f700793          	li	a5,503
   104a8:	7497fa63          	bleu	s1,a5,10bfc <_malloc_r+0x7b0>
/home/lucas/Documents/summerwork2015/riscv-material/riscv-tools/riscv-gnu-toolchain/build/src/newlib-gcc/newlib/libc/stdlib/mallocr.c:2388
   104ac:	0094d793          	srli	a5,s1,0x9
   104b0:	08000693          	li	a3,128
   104b4:	04000513          	li	a0,64
   104b8:	03f00593          	li	a1,63
   104bc:	24079463          	bnez	a5,10704 <_malloc_r+0x2b8>
/home/lucas/Documents/summerwork2015/riscv-material/riscv-tools/riscv-gnu-toolchain/build/src/newlib-gcc/newlib/libc/stdlib/mallocr.c:2389 (discriminator 24)
   104c0:	00014937          	lui	s2,0x14
   104c4:	66090913          	addi	s2,s2,1632 # 14660 <__malloc_av_>
   104c8:	00369693          	slli	a3,a3,0x3
   104cc:	00d906b3          	add	a3,s2,a3
/home/lucas/Documents/summerwork2015/riscv-material/riscv-tools/riscv-gnu-toolchain/build/src/newlib-gcc/newlib/libc/stdlib/mallocr.c:2391
   104d0:	0086b403          	ld	s0,8(a3)
/home/lucas/Documents/summerwork2015/riscv-material/riscv-tools/riscv-gnu-toolchain/build/src/newlib-gcc/newlib/libc/stdlib/mallocr.c:2389
   104d4:	ff068693          	addi	a3,a3,-16
/home/lucas/Documents/summerwork2015/riscv-material/riscv-tools/riscv-gnu-toolchain/build/src/newlib-gcc/newlib/libc/stdlib/mallocr.c:2391
   104d8:	24868663          	beq	a3,s0,10724 <_malloc_r+0x2d8>
/home/lucas/Documents/summerwork2015/riscv-material/riscv-tools/riscv-gnu-toolchain/build/src/newlib-gcc/newlib/libc/stdlib/mallocr.c:2393
   104dc:	00843783          	ld	a5,8(s0)
/home/lucas/Documents/summerwork2015/riscv-material/riscv-tools/riscv-gnu-toolchain/build/src/newlib-gcc/newlib/libc/stdlib/mallocr.c:2396
   104e0:	01f00613          	li	a2,31
/home/lucas/Documents/summerwork2015/riscv-material/riscv-tools/riscv-gnu-toolchain/build/src/newlib-gcc/newlib/libc/stdlib/mallocr.c:2393
   104e4:	ffc7f793          	andi	a5,a5,-4
/home/lucas/Documents/summerwork2015/riscv-material/riscv-tools/riscv-gnu-toolchain/build/src/newlib-gcc/newlib/libc/stdlib/mallocr.c:2394
   104e8:	40978733          	sub	a4,a5,s1
/home/lucas/Documents/summerwork2015/riscv-material/riscv-tools/riscv-gnu-toolchain/build/src/newlib-gcc/newlib/libc/stdlib/mallocr.c:2396
   104ec:	02e64063          	blt	a2,a4,1050c <_malloc_r+0xc0>
/home/lucas/Documents/summerwork2015/riscv-material/riscv-tools/riscv-gnu-toolchain/build/src/newlib-gcc/newlib/libc/stdlib/mallocr.c:2402
   104f0:	22075e63          	bgez	a4,1072c <_malloc_r+0x2e0>
/home/lucas/Documents/summerwork2015/riscv-material/riscv-tools/riscv-gnu-toolchain/build/src/newlib-gcc/newlib/libc/stdlib/mallocr.c:2391 (discriminator 2)
   104f4:	01843403          	ld	s0,24(s0)
   104f8:	22868663          	beq	a3,s0,10724 <_malloc_r+0x2d8>
/home/lucas/Documents/summerwork2015/riscv-material/riscv-tools/riscv-gnu-toolchain/build/src/newlib-gcc/newlib/libc/stdlib/mallocr.c:2393
   104fc:	00843783          	ld	a5,8(s0)
   10500:	ffc7f793          	andi	a5,a5,-4
/home/lucas/Documents/summerwork2015/riscv-material/riscv-tools/riscv-gnu-toolchain/build/src/newlib-gcc/newlib/libc/stdlib/mallocr.c:2394
   10504:	40978733          	sub	a4,a5,s1
/home/lucas/Documents/summerwork2015/riscv-material/riscv-tools/riscv-gnu-toolchain/build/src/newlib-gcc/newlib/libc/stdlib/mallocr.c:2396
   10508:	fee654e3          	ble	a4,a2,104f0 <_malloc_r+0xa4>
/home/lucas/Documents/summerwork2015/riscv-material/riscv-tools/riscv-gnu-toolchain/build/src/newlib-gcc/newlib/libc/stdlib/mallocr.c:2399
   1050c:	00058693          	mv	a3,a1
/home/lucas/Documents/summerwork2015/riscv-material/riscv-tools/riscv-gnu-toolchain/build/src/newlib-gcc/newlib/libc/stdlib/mallocr.c:2418
   10510:	02093403          	ld	s0,32(s2)
   10514:	01090813          	addi	a6,s2,16
   10518:	4d040463          	beq	s0,a6,109e0 <_malloc_r+0x594>
/home/lucas/Documents/summerwork2015/riscv-material/riscv-tools/riscv-gnu-toolchain/build/src/newlib-gcc/newlib/libc/stdlib/mallocr.c:2420
   1051c:	00843783          	ld	a5,8(s0)
/home/lucas/Documents/summerwork2015/riscv-material/riscv-tools/riscv-gnu-toolchain/build/src/newlib-gcc/newlib/libc/stdlib/mallocr.c:2423
   10520:	01f00613          	li	a2,31
/home/lucas/Documents/summerwork2015/riscv-material/riscv-tools/riscv-gnu-toolchain/build/src/newlib-gcc/newlib/libc/stdlib/mallocr.c:2420
   10524:	ffc7f793          	andi	a5,a5,-4
/home/lucas/Documents/summerwork2015/riscv-material/riscv-tools/riscv-gnu-toolchain/build/src/newlib-gcc/newlib/libc/stdlib/mallocr.c:2421
   10528:	40978733          	sub	a4,a5,s1
/home/lucas/Documents/summerwork2015/riscv-material/riscv-tools/riscv-gnu-toolchain/build/src/newlib-gcc/newlib/libc/stdlib/mallocr.c:2423
   1052c:	46e64c63          	blt	a2,a4,109a4 <_malloc_r+0x558>
/home/lucas/Documents/summerwork2015/riscv-material/riscv-tools/riscv-gnu-toolchain/build/src/newlib-gcc/newlib/libc/stdlib/mallocr.c:2435
   10530:	03093423          	sd	a6,40(s2)
   10534:	03093023          	sd	a6,32(s2)
/home/lucas/Documents/summerwork2015/riscv-material/riscv-tools/riscv-gnu-toolchain/build/src/newlib-gcc/newlib/libc/stdlib/mallocr.c:2437
   10538:	22075263          	bgez	a4,1075c <_malloc_r+0x310>
/home/lucas/Documents/summerwork2015/riscv-material/riscv-tools/riscv-gnu-toolchain/build/src/newlib-gcc/newlib/libc/stdlib/mallocr.c:2447
   1053c:	1ff00713          	li	a4,511
   10540:	3ef76e63          	bltu	a4,a5,1093c <_malloc_r+0x4f0>
/home/lucas/Documents/summerwork2015/riscv-material/riscv-tools/riscv-gnu-toolchain/build/src/newlib-gcc/newlib/libc/stdlib/mallocr.c:2447 (discriminator 1)
   10544:	0037d793          	srli	a5,a5,0x3
   10548:	0007879b          	sext.w	a5,a5
   1054c:	0017861b          	addiw	a2,a5,1
   10550:	0016161b          	slliw	a2,a2,0x1
   10554:	00361613          	slli	a2,a2,0x3
   10558:	00893703          	ld	a4,8(s2)
   1055c:	00c90633          	add	a2,s2,a2
   10560:	00063503          	ld	a0,0(a2) # 2000 <_ftext-0xe000>
   10564:	4027d79b          	sraiw	a5,a5,0x2
   10568:	00100593          	li	a1,1
   1056c:	00f597b3          	sll	a5,a1,a5
   10570:	00e7e7b3          	or	a5,a5,a4
   10574:	ff060713          	addi	a4,a2,-16
   10578:	00e43c23          	sd	a4,24(s0)
   1057c:	00a43823          	sd	a0,16(s0)
   10580:	00f93423          	sd	a5,8(s2)
   10584:	00863023          	sd	s0,0(a2)
   10588:	00853c23          	sd	s0,24(a0)
/home/lucas/Documents/summerwork2015/riscv-material/riscv-tools/riscv-gnu-toolchain/build/src/newlib-gcc/newlib/libc/stdlib/mallocr.c:2455
   1058c:	4026d61b          	sraiw	a2,a3,0x2
   10590:	00100713          	li	a4,1
   10594:	00c71633          	sll	a2,a4,a2
   10598:	1ec7e263          	bltu	a5,a2,1077c <_malloc_r+0x330>
/home/lucas/Documents/summerwork2015/riscv-material/riscv-tools/riscv-gnu-toolchain/build/src/newlib-gcc/newlib/libc/stdlib/mallocr.c:2460
   1059c:	00f67733          	and	a4,a2,a5
   105a0:	02071463          	bnez	a4,105c8 <_malloc_r+0x17c>
/home/lucas/Documents/summerwork2015/riscv-material/riscv-tools/riscv-gnu-toolchain/build/src/newlib-gcc/newlib/libc/stdlib/mallocr.c:2464
   105a4:	00161613          	slli	a2,a2,0x1
/home/lucas/Documents/summerwork2015/riscv-material/riscv-tools/riscv-gnu-toolchain/build/src/newlib-gcc/newlib/libc/stdlib/mallocr.c:2463
   105a8:	ffc6f693          	andi	a3,a3,-4
/home/lucas/Documents/summerwork2015/riscv-material/riscv-tools/riscv-gnu-toolchain/build/src/newlib-gcc/newlib/libc/stdlib/mallocr.c:2465
   105ac:	00f67733          	and	a4,a2,a5
/home/lucas/Documents/summerwork2015/riscv-material/riscv-tools/riscv-gnu-toolchain/build/src/newlib-gcc/newlib/libc/stdlib/mallocr.c:2463
   105b0:	0046869b          	addiw	a3,a3,4
/home/lucas/Documents/summerwork2015/riscv-material/riscv-tools/riscv-gnu-toolchain/build/src/newlib-gcc/newlib/libc/stdlib/mallocr.c:2465
   105b4:	00071a63          	bnez	a4,105c8 <_malloc_r+0x17c>
/home/lucas/Documents/summerwork2015/riscv-material/riscv-tools/riscv-gnu-toolchain/build/src/newlib-gcc/newlib/libc/stdlib/mallocr.c:2468
   105b8:	00161613          	slli	a2,a2,0x1
/home/lucas/Documents/summerwork2015/riscv-material/riscv-tools/riscv-gnu-toolchain/build/src/newlib-gcc/newlib/libc/stdlib/mallocr.c:2465
   105bc:	00f67733          	and	a4,a2,a5
/home/lucas/Documents/summerwork2015/riscv-material/riscv-tools/riscv-gnu-toolchain/build/src/newlib-gcc/newlib/libc/stdlib/mallocr.c:2467
   105c0:	0046869b          	addiw	a3,a3,4
/home/lucas/Documents/summerwork2015/riscv-material/riscv-tools/riscv-gnu-toolchain/build/src/newlib-gcc/newlib/libc/stdlib/mallocr.c:2465
   105c4:	fe070ae3          	beqz	a4,105b8 <_malloc_r+0x16c>
/home/lucas/Documents/summerwork2015/riscv-material/riscv-tools/riscv-gnu-toolchain/build/src/newlib-gcc/newlib/libc/stdlib/mallocr.c:2488
   105c8:	01f00513          	li	a0,31
/home/lucas/Documents/summerwork2015/riscv-material/riscv-tools/riscv-gnu-toolchain/build/src/newlib-gcc/newlib/libc/stdlib/mallocr.c:2476
   105cc:	0016889b          	addiw	a7,a3,1
   105d0:	0018989b          	slliw	a7,a7,0x1
   105d4:	00389893          	slli	a7,a7,0x3
   105d8:	011908b3          	add	a7,s2,a7
   105dc:	ff088893          	addi	a7,a7,-16
   105e0:	00088593          	mv	a1,a7
   105e4:	00068293          	mv	t0,a3
/home/lucas/Documents/summerwork2015/riscv-material/riscv-tools/riscv-gnu-toolchain/build/src/newlib-gcc/newlib/libc/stdlib/mallocr.c:2483
   105e8:	0185b403          	ld	s0,24(a1)
   105ec:	00859a63          	bne	a1,s0,10600 <_malloc_r+0x1b4>
   105f0:	3f80006f          	j	109e8 <_malloc_r+0x59c>
/home/lucas/Documents/summerwork2015/riscv-material/riscv-tools/riscv-gnu-toolchain/build/src/newlib-gcc/newlib/libc/stdlib/mallocr.c:2501
   105f4:	40075c63          	bgez	a4,10a0c <_malloc_r+0x5c0>
/home/lucas/Documents/summerwork2015/riscv-material/riscv-tools/riscv-gnu-toolchain/build/src/newlib-gcc/newlib/libc/stdlib/mallocr.c:2483 (discriminator 2)
   105f8:	01843403          	ld	s0,24(s0)
   105fc:	3e858663          	beq	a1,s0,109e8 <_malloc_r+0x59c>
/home/lucas/Documents/summerwork2015/riscv-material/riscv-tools/riscv-gnu-toolchain/build/src/newlib-gcc/newlib/libc/stdlib/mallocr.c:2485
   10600:	00843783          	ld	a5,8(s0)
   10604:	ffc7f793          	andi	a5,a5,-4
/home/lucas/Documents/summerwork2015/riscv-material/riscv-tools/riscv-gnu-toolchain/build/src/newlib-gcc/newlib/libc/stdlib/mallocr.c:2486
   10608:	40978733          	sub	a4,a5,s1
/home/lucas/Documents/summerwork2015/riscv-material/riscv-tools/riscv-gnu-toolchain/build/src/newlib-gcc/newlib/libc/stdlib/mallocr.c:2488
   1060c:	fee554e3          	ble	a4,a0,105f4 <_malloc_r+0x1a8>
/home/lucas/Documents/summerwork2015/riscv-material/riscv-tools/riscv-gnu-toolchain/build/src/newlib-gcc/newlib/libc/stdlib/mallocr.c:2492
   10610:	01843683          	ld	a3,24(s0)
   10614:	01043603          	ld	a2,16(s0)
/home/lucas/Documents/summerwork2015/riscv-material/riscv-tools/riscv-gnu-toolchain/build/src/newlib-gcc/newlib/libc/stdlib/mallocr.c:2490
   10618:	009407b3          	add	a5,s0,s1
/home/lucas/Documents/summerwork2015/riscv-material/riscv-tools/riscv-gnu-toolchain/build/src/newlib-gcc/newlib/libc/stdlib/mallocr.c:2494
   1061c:	00176893          	ori	a7,a4,1
/home/lucas/Documents/summerwork2015/riscv-material/riscv-tools/riscv-gnu-toolchain/build/src/newlib-gcc/newlib/libc/stdlib/mallocr.c:2495
   10620:	00e785b3          	add	a1,a5,a4
/home/lucas/Documents/summerwork2015/riscv-material/riscv-tools/riscv-gnu-toolchain/build/src/newlib-gcc/newlib/libc/stdlib/mallocr.c:2491
   10624:	0014e493          	ori	s1,s1,1
   10628:	00943423          	sd	s1,8(s0)
/home/lucas/Documents/summerwork2015/riscv-material/riscv-tools/riscv-gnu-toolchain/build/src/newlib-gcc/newlib/libc/stdlib/mallocr.c:2497
   1062c:	00098513          	mv	a0,s3
/home/lucas/Documents/summerwork2015/riscv-material/riscv-tools/riscv-gnu-toolchain/build/src/newlib-gcc/newlib/libc/stdlib/mallocr.c:2492
   10630:	00d63c23          	sd	a3,24(a2)
   10634:	00c6b823          	sd	a2,16(a3)
/home/lucas/Documents/summerwork2015/riscv-material/riscv-tools/riscv-gnu-toolchain/build/src/newlib-gcc/newlib/libc/stdlib/mallocr.c:2493
   10638:	02f93423          	sd	a5,40(s2)
   1063c:	02f93023          	sd	a5,32(s2)
   10640:	0107bc23          	sd	a6,24(a5) # ffffffff80000018 <_gp+0xffffffff7ffea9a8>
   10644:	0107b823          	sd	a6,16(a5)
/home/lucas/Documents/summerwork2015/riscv-material/riscv-tools/riscv-gnu-toolchain/build/src/newlib-gcc/newlib/libc/stdlib/mallocr.c:2494
   10648:	0117b423          	sd	a7,8(a5)
/home/lucas/Documents/summerwork2015/riscv-material/riscv-tools/riscv-gnu-toolchain/build/src/newlib-gcc/newlib/libc/stdlib/mallocr.c:2495
   1064c:	00e5b023          	sd	a4,0(a1)
/home/lucas/Documents/summerwork2015/riscv-material/riscv-tools/riscv-gnu-toolchain/build/src/newlib-gcc/newlib/libc/stdlib/mallocr.c:2497
   10650:	5c4000ef          	jal	10c14 <__malloc_unlock>
/home/lucas/Documents/summerwork2015/riscv-material/riscv-tools/riscv-gnu-toolchain/build/src/newlib-gcc/newlib/libc/stdlib/mallocr.c:2498
   10654:	01040513          	addi	a0,s0,16
   10658:	0680006f          	j	106c0 <_malloc_r+0x274>
/home/lucas/Documents/summerwork2015/riscv-material/riscv-tools/riscv-gnu-toolchain/build/src/newlib-gcc/newlib/libc/stdlib/mallocr.c:2346
   1065c:	02000493          	li	s1,32
   10660:	08b4ea63          	bltu	s1,a1,106f4 <_malloc_r+0x2a8>
/home/lucas/Documents/summerwork2015/riscv-material/riscv-tools/riscv-gnu-toolchain/build/src/newlib-gcc/newlib/libc/stdlib/mallocr.c:2352
   10664:	5ac000ef          	jal	10c10 <__malloc_lock>
   10668:	00a00793          	li	a5,10
   1066c:	00400693          	li	a3,4
/home/lucas/Documents/summerwork2015/riscv-material/riscv-tools/riscv-gnu-toolchain/build/src/newlib-gcc/newlib/libc/stdlib/mallocr.c:2362
   10670:	00014937          	lui	s2,0x14
   10674:	66090913          	addi	s2,s2,1632 # 14660 <__malloc_av_>
   10678:	00379793          	slli	a5,a5,0x3
   1067c:	00f907b3          	add	a5,s2,a5
/home/lucas/Documents/summerwork2015/riscv-material/riscv-tools/riscv-gnu-toolchain/build/src/newlib-gcc/newlib/libc/stdlib/mallocr.c:2363
   10680:	0087b403          	ld	s0,8(a5)
/home/lucas/Documents/summerwork2015/riscv-material/riscv-tools/riscv-gnu-toolchain/build/src/newlib-gcc/newlib/libc/stdlib/mallocr.c:2367
   10684:	ff078713          	addi	a4,a5,-16
   10688:	36e40a63          	beq	s0,a4,109fc <_malloc_r+0x5b0>
/home/lucas/Documents/summerwork2015/riscv-material/riscv-tools/riscv-gnu-toolchain/build/src/newlib-gcc/newlib/libc/stdlib/mallocr.c:2375
   1068c:	00843783          	ld	a5,8(s0)
/home/lucas/Documents/summerwork2015/riscv-material/riscv-tools/riscv-gnu-toolchain/build/src/newlib-gcc/newlib/libc/stdlib/mallocr.c:2376
   10690:	01843683          	ld	a3,24(s0)
   10694:	01043603          	ld	a2,16(s0)
/home/lucas/Documents/summerwork2015/riscv-material/riscv-tools/riscv-gnu-toolchain/build/src/newlib-gcc/newlib/libc/stdlib/mallocr.c:2375
   10698:	ffc7f793          	andi	a5,a5,-4
/home/lucas/Documents/summerwork2015/riscv-material/riscv-tools/riscv-gnu-toolchain/build/src/newlib-gcc/newlib/libc/stdlib/mallocr.c:2377
   1069c:	00f407b3          	add	a5,s0,a5
   106a0:	0087b703          	ld	a4,8(a5)
/home/lucas/Documents/summerwork2015/riscv-material/riscv-tools/riscv-gnu-toolchain/build/src/newlib-gcc/newlib/libc/stdlib/mallocr.c:2379
   106a4:	00098513          	mv	a0,s3
/home/lucas/Documents/summerwork2015/riscv-material/riscv-tools/riscv-gnu-toolchain/build/src/newlib-gcc/newlib/libc/stdlib/mallocr.c:2376
   106a8:	00d63c23          	sd	a3,24(a2)
/home/lucas/Documents/summerwork2015/riscv-material/riscv-tools/riscv-gnu-toolchain/build/src/newlib-gcc/newlib/libc/stdlib/mallocr.c:2377
   106ac:	00176713          	ori	a4,a4,1
/home/lucas/Documents/summerwork2015/riscv-material/riscv-tools/riscv-gnu-toolchain/build/src/newlib-gcc/newlib/libc/stdlib/mallocr.c:2376
   106b0:	00c6b823          	sd	a2,16(a3)
/home/lucas/Documents/summerwork2015/riscv-material/riscv-tools/riscv-gnu-toolchain/build/src/newlib-gcc/newlib/libc/stdlib/mallocr.c:2377
   106b4:	00e7b423          	sd	a4,8(a5)
/home/lucas/Documents/summerwork2015/riscv-material/riscv-tools/riscv-gnu-toolchain/build/src/newlib-gcc/newlib/libc/stdlib/mallocr.c:2379
   106b8:	55c000ef          	jal	10c14 <__malloc_unlock>
/home/lucas/Documents/summerwork2015/riscv-material/riscv-tools/riscv-gnu-toolchain/build/src/newlib-gcc/newlib/libc/stdlib/mallocr.c:2380
   106bc:	01040513          	addi	a0,s0,16
/home/lucas/Documents/summerwork2015/riscv-material/riscv-tools/riscv-gnu-toolchain/build/src/newlib-gcc/newlib/libc/stdlib/mallocr.c:2588
   106c0:	05813083          	ld	ra,88(sp)
   106c4:	05013403          	ld	s0,80(sp)
   106c8:	04813483          	ld	s1,72(sp)
   106cc:	04013903          	ld	s2,64(sp)
   106d0:	03813983          	ld	s3,56(sp)
   106d4:	03013a03          	ld	s4,48(sp)
   106d8:	02813a83          	ld	s5,40(sp)
   106dc:	02013b03          	ld	s6,32(sp)
   106e0:	01813b83          	ld	s7,24(sp)
   106e4:	01013c03          	ld	s8,16(sp)
   106e8:	00813c83          	ld	s9,8(sp)
   106ec:	06010113          	addi	sp,sp,96
   106f0:	00008067          	ret
/home/lucas/Documents/summerwork2015/riscv-material/riscv-tools/riscv-gnu-toolchain/build/src/newlib-gcc/newlib/libc/stdlib/mallocr.c:2348
   106f4:	00c00793          	li	a5,12
   106f8:	00f9a023          	sw	a5,0(s3)
/home/lucas/Documents/summerwork2015/riscv-material/riscv-tools/riscv-gnu-toolchain/build/src/newlib-gcc/newlib/libc/stdlib/mallocr.c:2349
   106fc:	00000513          	li	a0,0
   10700:	fc1ff06f          	j	106c0 <_malloc_r+0x274>
/home/lucas/Documents/summerwork2015/riscv-material/riscv-tools/riscv-gnu-toolchain/build/src/newlib-gcc/newlib/libc/stdlib/mallocr.c:2388 (discriminator 2)
   10704:	00400713          	li	a4,4
   10708:	20f76663          	bltu	a4,a5,10914 <_malloc_r+0x4c8>
/home/lucas/Documents/summerwork2015/riscv-material/riscv-tools/riscv-gnu-toolchain/build/src/newlib-gcc/newlib/libc/stdlib/mallocr.c:2388 (discriminator 4)
   1070c:	0064d593          	srli	a1,s1,0x6
   10710:	0005859b          	sext.w	a1,a1
   10714:	0395851b          	addiw	a0,a1,57
   10718:	0015169b          	slliw	a3,a0,0x1
   1071c:	0385859b          	addiw	a1,a1,56
   10720:	da1ff06f          	j	104c0 <_malloc_r+0x74>
/home/lucas/Documents/summerwork2015/riscv-material/riscv-tools/riscv-gnu-toolchain/build/src/newlib-gcc/newlib/libc/stdlib/mallocr.c:2391
   10724:	00050693          	mv	a3,a0
   10728:	de9ff06f          	j	10510 <_malloc_r+0xc4>
/home/lucas/Documents/summerwork2015/riscv-material/riscv-tools/riscv-gnu-toolchain/build/src/newlib-gcc/newlib/libc/stdlib/mallocr.c:2405
   1072c:	00f407b3          	add	a5,s0,a5
   10730:	0087b703          	ld	a4,8(a5)
/home/lucas/Documents/summerwork2015/riscv-material/riscv-tools/riscv-gnu-toolchain/build/src/newlib-gcc/newlib/libc/stdlib/mallocr.c:2404
   10734:	01843683          	ld	a3,24(s0)
   10738:	01043603          	ld	a2,16(s0)
/home/lucas/Documents/summerwork2015/riscv-material/riscv-tools/riscv-gnu-toolchain/build/src/newlib-gcc/newlib/libc/stdlib/mallocr.c:2405
   1073c:	00176713          	ori	a4,a4,1
/home/lucas/Documents/summerwork2015/riscv-material/riscv-tools/riscv-gnu-toolchain/build/src/newlib-gcc/newlib/libc/stdlib/mallocr.c:2407
   10740:	00098513          	mv	a0,s3
/home/lucas/Documents/summerwork2015/riscv-material/riscv-tools/riscv-gnu-toolchain/build/src/newlib-gcc/newlib/libc/stdlib/mallocr.c:2404
   10744:	00d63c23          	sd	a3,24(a2)
   10748:	00c6b823          	sd	a2,16(a3)
/home/lucas/Documents/summerwork2015/riscv-material/riscv-tools/riscv-gnu-toolchain/build/src/newlib-gcc/newlib/libc/stdlib/mallocr.c:2405
   1074c:	00e7b423          	sd	a4,8(a5)
/home/lucas/Documents/summerwork2015/riscv-material/riscv-tools/riscv-gnu-toolchain/build/src/newlib-gcc/newlib/libc/stdlib/mallocr.c:2407
   10750:	4c4000ef          	jal	10c14 <__malloc_unlock>
/home/lucas/Documents/summerwork2015/riscv-material/riscv-tools/riscv-gnu-toolchain/build/src/newlib-gcc/newlib/libc/stdlib/mallocr.c:2408
   10754:	01040513          	addi	a0,s0,16
   10758:	f69ff06f          	j	106c0 <_malloc_r+0x274>
/home/lucas/Documents/summerwork2015/riscv-material/riscv-tools/riscv-gnu-toolchain/build/src/newlib-gcc/newlib/libc/stdlib/mallocr.c:2439
   1075c:	00f407b3          	add	a5,s0,a5
   10760:	0087b703          	ld	a4,8(a5)
/home/lucas/Documents/summerwork2015/riscv-material/riscv-tools/riscv-gnu-toolchain/build/src/newlib-gcc/newlib/libc/stdlib/mallocr.c:2441
   10764:	00098513          	mv	a0,s3
/home/lucas/Documents/summerwork2015/riscv-material/riscv-tools/riscv-gnu-toolchain/build/src/newlib-gcc/newlib/libc/stdlib/mallocr.c:2439
   10768:	00176713          	ori	a4,a4,1
   1076c:	00e7b423          	sd	a4,8(a5)
/home/lucas/Documents/summerwork2015/riscv-material/riscv-tools/riscv-gnu-toolchain/build/src/newlib-gcc/newlib/libc/stdlib/mallocr.c:2441
   10770:	4a4000ef          	jal	10c14 <__malloc_unlock>
/home/lucas/Documents/summerwork2015/riscv-material/riscv-tools/riscv-gnu-toolchain/build/src/newlib-gcc/newlib/libc/stdlib/mallocr.c:2442
   10774:	01040513          	addi	a0,s0,16
   10778:	f49ff06f          	j	106c0 <_malloc_r+0x274>
/home/lucas/Documents/summerwork2015/riscv-material/riscv-tools/riscv-gnu-toolchain/build/src/newlib-gcc/newlib/libc/stdlib/mallocr.c:2555
   1077c:	01093403          	ld	s0,16(s2)
   10780:	00843b03          	ld	s6,8(s0)
   10784:	ffcb7b93          	andi	s7,s6,-4
/home/lucas/Documents/summerwork2015/riscv-material/riscv-tools/riscv-gnu-toolchain/build/src/newlib-gcc/newlib/libc/stdlib/mallocr.c:2556
   10788:	009be863          	bltu	s7,s1,10798 <_malloc_r+0x34c>
/home/lucas/Documents/summerwork2015/riscv-material/riscv-tools/riscv-gnu-toolchain/build/src/newlib-gcc/newlib/libc/stdlib/mallocr.c:2555 (discriminator 1)
   1078c:	409b87b3          	sub	a5,s7,s1
/home/lucas/Documents/summerwork2015/riscv-material/riscv-tools/riscv-gnu-toolchain/build/src/newlib-gcc/newlib/libc/stdlib/mallocr.c:2556
   10790:	01f00713          	li	a4,31
   10794:	14f74c63          	blt	a4,a5,108ec <_malloc_r+0x4a0>
malloc_extend_top():
/home/lucas/Documents/summerwork2015/riscv-material/riscv-tools/riscv-gnu-toolchain/build/src/newlib-gcc/newlib/libc/stdlib/mallocr.c:2150
   10798:	8501b783          	ld	a5,-1968(gp) # 14ec0 <__malloc_top_pad>
/home/lucas/Documents/summerwork2015/riscv-material/riscv-tools/riscv-gnu-toolchain/build/src/newlib-gcc/newlib/libc/stdlib/mallocr.c:2157
   1079c:	8181b683          	ld	a3,-2024(gp) # 14e88 <__malloc_sbrk_base>
   107a0:	fff00713          	li	a4,-1
/home/lucas/Documents/summerwork2015/riscv-material/riscv-tools/riscv-gnu-toolchain/build/src/newlib-gcc/newlib/libc/stdlib/mallocr.c:2150
   107a4:	00f487b3          	add	a5,s1,a5
/home/lucas/Documents/summerwork2015/riscv-material/riscv-tools/riscv-gnu-toolchain/build/src/newlib-gcc/newlib/libc/stdlib/mallocr.c:2146
   107a8:	01740a33          	add	s4,s0,s7
/home/lucas/Documents/summerwork2015/riscv-material/riscv-tools/riscv-gnu-toolchain/build/src/newlib-gcc/newlib/libc/stdlib/mallocr.c:2150
   107ac:	02078b13          	addi	s6,a5,32
/home/lucas/Documents/summerwork2015/riscv-material/riscv-tools/riscv-gnu-toolchain/build/src/newlib-gcc/newlib/libc/stdlib/mallocr.c:2157
   107b0:	00e68c63          	beq	a3,a4,107c8 <_malloc_r+0x37c>
/home/lucas/Documents/summerwork2015/riscv-material/riscv-tools/riscv-gnu-toolchain/build/src/newlib-gcc/newlib/libc/stdlib/mallocr.c:2158
   107b4:	000016b7          	lui	a3,0x1
   107b8:	01f68b13          	addi	s6,a3,31 # 101f <_ftext-0xefe1>
   107bc:	016786b3          	add	a3,a5,s6
   107c0:	fffff7b7          	lui	a5,0xfffff
   107c4:	00f6fb33          	and	s6,a3,a5
/home/lucas/Documents/summerwork2015/riscv-material/riscv-tools/riscv-gnu-toolchain/build/src/newlib-gcc/newlib/libc/stdlib/mallocr.c:2160
   107c8:	000b0513          	mv	a0,s6
   107cc:	301020ef          	jal	132cc <sbrk>
/home/lucas/Documents/summerwork2015/riscv-material/riscv-tools/riscv-gnu-toolchain/build/src/newlib-gcc/newlib/libc/stdlib/mallocr.c:2163
   107d0:	fff00793          	li	a5,-1
/home/lucas/Documents/summerwork2015/riscv-material/riscv-tools/riscv-gnu-toolchain/build/src/newlib-gcc/newlib/libc/stdlib/mallocr.c:2160
   107d4:	00050a93          	mv	s5,a0
/home/lucas/Documents/summerwork2015/riscv-material/riscv-tools/riscv-gnu-toolchain/build/src/newlib-gcc/newlib/libc/stdlib/mallocr.c:2163
   107d8:	28f50a63          	beq	a0,a5,10a6c <_malloc_r+0x620>
   107dc:	29456663          	bltu	a0,s4,10a68 <_malloc_r+0x61c>
/home/lucas/Documents/summerwork2015/riscv-material/riscv-tools/riscv-gnu-toolchain/build/src/newlib-gcc/newlib/libc/stdlib/mallocr.c:2167
   107e0:	89818c13          	addi	s8,gp,-1896 # 14f08 <__malloc_current_mallinfo>
   107e4:	000c2783          	lw	a5,0(s8)
   107e8:	00fb07bb          	addw	a5,s6,a5
   107ec:	00fc2023          	sw	a5,0(s8)
/home/lucas/Documents/summerwork2015/riscv-material/riscv-tools/riscv-gnu-toolchain/build/src/newlib-gcc/newlib/libc/stdlib/mallocr.c:2169
   107f0:	375a0c63          	beq	s4,s5,10b68 <_malloc_r+0x71c>
/home/lucas/Documents/summerwork2015/riscv-material/riscv-tools/riscv-gnu-toolchain/build/src/newlib-gcc/newlib/libc/stdlib/mallocr.c:2178
   107f4:	8181b683          	ld	a3,-2024(gp) # 14e88 <__malloc_sbrk_base>
   107f8:	fff00713          	li	a4,-1
   107fc:	38e68a63          	beq	a3,a4,10b90 <_malloc_r+0x744>
/home/lucas/Documents/summerwork2015/riscv-material/riscv-tools/riscv-gnu-toolchain/build/src/newlib-gcc/newlib/libc/stdlib/mallocr.c:2181
   10800:	414a8a33          	sub	s4,s5,s4
   10804:	00fa07bb          	addw	a5,s4,a5
   10808:	00fc2023          	sw	a5,0(s8)
/home/lucas/Documents/summerwork2015/riscv-material/riscv-tools/riscv-gnu-toolchain/build/src/newlib-gcc/newlib/libc/stdlib/mallocr.c:2184
   1080c:	00faf713          	andi	a4,s5,15
/home/lucas/Documents/summerwork2015/riscv-material/riscv-tools/riscv-gnu-toolchain/build/src/newlib-gcc/newlib/libc/stdlib/mallocr.c:2185
   10810:	000017b7          	lui	a5,0x1
   10814:	00070a63          	beqz	a4,10828 <_malloc_r+0x3dc>
/home/lucas/Documents/summerwork2015/riscv-material/riscv-tools/riscv-gnu-toolchain/build/src/newlib-gcc/newlib/libc/stdlib/mallocr.c:2188
   10818:	40ea8ab3          	sub	s5,s5,a4
   1081c:	01078a13          	addi	s4,a5,16 # 1010 <_ftext-0xeff0>
   10820:	010a8a93          	addi	s5,s5,16
   10824:	40ea07b3          	sub	a5,s4,a4
/home/lucas/Documents/summerwork2015/riscv-material/riscv-tools/riscv-gnu-toolchain/build/src/newlib-gcc/newlib/libc/stdlib/mallocr.c:2194
   10828:	00001a37          	lui	s4,0x1
   1082c:	fffa0a13          	addi	s4,s4,-1 # fff <_ftext-0xf001>
   10830:	016a8b33          	add	s6,s5,s6
   10834:	014b7b33          	and	s6,s6,s4
   10838:	41678a33          	sub	s4,a5,s6
/home/lucas/Documents/summerwork2015/riscv-material/riscv-tools/riscv-gnu-toolchain/build/src/newlib-gcc/newlib/libc/stdlib/mallocr.c:2197
   1083c:	000a0513          	mv	a0,s4
   10840:	28d020ef          	jal	132cc <sbrk>
/home/lucas/Documents/summerwork2015/riscv-material/riscv-tools/riscv-gnu-toolchain/build/src/newlib-gcc/newlib/libc/stdlib/mallocr.c:2198
   10844:	fff00793          	li	a5,-1
   10848:	32f50e63          	beq	a0,a5,10b84 <_malloc_r+0x738>
   1084c:	41550733          	sub	a4,a0,s5
   10850:	01470733          	add	a4,a4,s4
   10854:	00176713          	ori	a4,a4,1
   10858:	000a0a1b          	sext.w	s4,s4
/home/lucas/Documents/summerwork2015/riscv-material/riscv-tools/riscv-gnu-toolchain/build/src/newlib-gcc/newlib/libc/stdlib/mallocr.c:2205
   1085c:	000c2783          	lw	a5,0(s8)
/home/lucas/Documents/summerwork2015/riscv-material/riscv-tools/riscv-gnu-toolchain/build/src/newlib-gcc/newlib/libc/stdlib/mallocr.c:2207
   10860:	01593823          	sd	s5,16(s2)
/home/lucas/Documents/summerwork2015/riscv-material/riscv-tools/riscv-gnu-toolchain/build/src/newlib-gcc/newlib/libc/stdlib/mallocr.c:2209
   10864:	00eab423          	sd	a4,8(s5)
/home/lucas/Documents/summerwork2015/riscv-material/riscv-tools/riscv-gnu-toolchain/build/src/newlib-gcc/newlib/libc/stdlib/mallocr.c:2205
   10868:	00fa07bb          	addw	a5,s4,a5
   1086c:	00fc2023          	sw	a5,0(s8)
/home/lucas/Documents/summerwork2015/riscv-material/riscv-tools/riscv-gnu-toolchain/build/src/newlib-gcc/newlib/libc/stdlib/mallocr.c:2211
   10870:	03240c63          	beq	s0,s2,108a8 <_malloc_r+0x45c>
/home/lucas/Documents/summerwork2015/riscv-material/riscv-tools/riscv-gnu-toolchain/build/src/newlib-gcc/newlib/libc/stdlib/mallocr.c:2218
   10874:	01f00613          	li	a2,31
   10878:	29767c63          	bleu	s7,a2,10b10 <_malloc_r+0x6c4>
/home/lucas/Documents/summerwork2015/riscv-material/riscv-tools/riscv-gnu-toolchain/build/src/newlib-gcc/newlib/libc/stdlib/mallocr.c:2225
   1087c:	fe8b8713          	addi	a4,s7,-24
   10880:	ff077713          	andi	a4,a4,-16
/home/lucas/Documents/summerwork2015/riscv-material/riscv-tools/riscv-gnu-toolchain/build/src/newlib-gcc/newlib/libc/stdlib/mallocr.c:2226
   10884:	00e406b3          	add	a3,s0,a4
   10888:	00900593          	li	a1,9
   1088c:	00b6b423          	sd	a1,8(a3)
/home/lucas/Documents/summerwork2015/riscv-material/riscv-tools/riscv-gnu-toolchain/build/src/newlib-gcc/newlib/libc/stdlib/mallocr.c:2228
   10890:	00b6b823          	sd	a1,16(a3)
/home/lucas/Documents/summerwork2015/riscv-material/riscv-tools/riscv-gnu-toolchain/build/src/newlib-gcc/newlib/libc/stdlib/mallocr.c:2230
   10894:	00843683          	ld	a3,8(s0)
   10898:	0016f693          	andi	a3,a3,1
   1089c:	00e6e6b3          	or	a3,a3,a4
   108a0:	00d43423          	sd	a3,8(s0)
/home/lucas/Documents/summerwork2015/riscv-material/riscv-tools/riscv-gnu-toolchain/build/src/newlib-gcc/newlib/libc/stdlib/mallocr.c:2232
   108a4:	2ee66a63          	bltu	a2,a4,10b98 <_malloc_r+0x74c>
/home/lucas/Documents/summerwork2015/riscv-material/riscv-tools/riscv-gnu-toolchain/build/src/newlib-gcc/newlib/libc/stdlib/mallocr.c:2237
   108a8:	8481b683          	ld	a3,-1976(gp) # 14eb8 <__malloc_max_sbrked_mem>
   108ac:	00f6f463          	bleu	a5,a3,108b4 <_malloc_r+0x468>
/home/lucas/Documents/summerwork2015/riscv-material/riscv-tools/riscv-gnu-toolchain/build/src/newlib-gcc/newlib/libc/stdlib/mallocr.c:2238
   108b0:	84f1b423          	sd	a5,-1976(gp) # 14eb8 <__malloc_max_sbrked_mem>
/home/lucas/Documents/summerwork2015/riscv-material/riscv-tools/riscv-gnu-toolchain/build/src/newlib-gcc/newlib/libc/stdlib/mallocr.c:2243
   108b4:	8401b683          	ld	a3,-1984(gp) # 14eb0 <__malloc_max_total_mem>
   108b8:	01093403          	ld	s0,16(s2)
   108bc:	00f6f463          	bleu	a5,a3,108c4 <_malloc_r+0x478>
/home/lucas/Documents/summerwork2015/riscv-material/riscv-tools/riscv-gnu-toolchain/build/src/newlib-gcc/newlib/libc/stdlib/mallocr.c:2244
   108c0:	84f1b023          	sd	a5,-1984(gp) # 14eb0 <__malloc_max_total_mem>
   108c4:	00843703          	ld	a4,8(s0)
   108c8:	ffc77713          	andi	a4,a4,-4
_malloc_r():
/home/lucas/Documents/summerwork2015/riscv-material/riscv-tools/riscv-gnu-toolchain/build/src/newlib-gcc/newlib/libc/stdlib/mallocr.c:2571
   108cc:	409707b3          	sub	a5,a4,s1
/home/lucas/Documents/summerwork2015/riscv-material/riscv-tools/riscv-gnu-toolchain/build/src/newlib-gcc/newlib/libc/stdlib/mallocr.c:2572
   108d0:	00976663          	bltu	a4,s1,108dc <_malloc_r+0x490>
/home/lucas/Documents/summerwork2015/riscv-material/riscv-tools/riscv-gnu-toolchain/build/src/newlib-gcc/newlib/libc/stdlib/mallocr.c:2572 (discriminator 1)
   108d4:	01f00713          	li	a4,31
   108d8:	00f74a63          	blt	a4,a5,108ec <_malloc_r+0x4a0>
/home/lucas/Documents/summerwork2015/riscv-material/riscv-tools/riscv-gnu-toolchain/build/src/newlib-gcc/newlib/libc/stdlib/mallocr.c:2574
   108dc:	00098513          	mv	a0,s3
   108e0:	334000ef          	jal	10c14 <__malloc_unlock>
/home/lucas/Documents/summerwork2015/riscv-material/riscv-tools/riscv-gnu-toolchain/build/src/newlib-gcc/newlib/libc/stdlib/mallocr.c:2575
   108e4:	00000513          	li	a0,0
   108e8:	dd9ff06f          	j	106c0 <_malloc_r+0x274>
/home/lucas/Documents/summerwork2015/riscv-material/riscv-tools/riscv-gnu-toolchain/build/src/newlib-gcc/newlib/libc/stdlib/mallocr.c:2581
   108ec:	00940733          	add	a4,s0,s1
/home/lucas/Documents/summerwork2015/riscv-material/riscv-tools/riscv-gnu-toolchain/build/src/newlib-gcc/newlib/libc/stdlib/mallocr.c:2582
   108f0:	0017e793          	ori	a5,a5,1
/home/lucas/Documents/summerwork2015/riscv-material/riscv-tools/riscv-gnu-toolchain/build/src/newlib-gcc/newlib/libc/stdlib/mallocr.c:2580
   108f4:	0014e493          	ori	s1,s1,1
   108f8:	00943423          	sd	s1,8(s0)
/home/lucas/Documents/summerwork2015/riscv-material/riscv-tools/riscv-gnu-toolchain/build/src/newlib-gcc/newlib/libc/stdlib/mallocr.c:2584
   108fc:	00098513          	mv	a0,s3
/home/lucas/Documents/summerwork2015/riscv-material/riscv-tools/riscv-gnu-toolchain/build/src/newlib-gcc/newlib/libc/stdlib/mallocr.c:2581
   10900:	00e93823          	sd	a4,16(s2)
/home/lucas/Documents/summerwork2015/riscv-material/riscv-tools/riscv-gnu-toolchain/build/src/newlib-gcc/newlib/libc/stdlib/mallocr.c:2582
   10904:	00f73423          	sd	a5,8(a4)
/home/lucas/Documents/summerwork2015/riscv-material/riscv-tools/riscv-gnu-toolchain/build/src/newlib-gcc/newlib/libc/stdlib/mallocr.c:2584
   10908:	30c000ef          	jal	10c14 <__malloc_unlock>
/home/lucas/Documents/summerwork2015/riscv-material/riscv-tools/riscv-gnu-toolchain/build/src/newlib-gcc/newlib/libc/stdlib/mallocr.c:2585
   1090c:	01040513          	addi	a0,s0,16
   10910:	db1ff06f          	j	106c0 <_malloc_r+0x274>
/home/lucas/Documents/summerwork2015/riscv-material/riscv-tools/riscv-gnu-toolchain/build/src/newlib-gcc/newlib/libc/stdlib/mallocr.c:2388 (discriminator 5)
   10914:	01400713          	li	a4,20
   10918:	12f77263          	bleu	a5,a4,10a3c <_malloc_r+0x5f0>
/home/lucas/Documents/summerwork2015/riscv-material/riscv-tools/riscv-gnu-toolchain/build/src/newlib-gcc/newlib/libc/stdlib/mallocr.c:2388 (discriminator 8)
   1091c:	05400713          	li	a4,84
   10920:	1af76863          	bltu	a4,a5,10ad0 <_malloc_r+0x684>
/home/lucas/Documents/summerwork2015/riscv-material/riscv-tools/riscv-gnu-toolchain/build/src/newlib-gcc/newlib/libc/stdlib/mallocr.c:2388 (discriminator 10)
   10924:	00c4d593          	srli	a1,s1,0xc
   10928:	0005859b          	sext.w	a1,a1
   1092c:	06f5851b          	addiw	a0,a1,111
   10930:	0015169b          	slliw	a3,a0,0x1
   10934:	06e5859b          	addiw	a1,a1,110
   10938:	b89ff06f          	j	104c0 <_malloc_r+0x74>
/home/lucas/Documents/summerwork2015/riscv-material/riscv-tools/riscv-gnu-toolchain/build/src/newlib-gcc/newlib/libc/stdlib/mallocr.c:2447 (discriminator 2)
   1093c:	0097d713          	srli	a4,a5,0x9
   10940:	00400613          	li	a2,4
   10944:	10e67663          	bleu	a4,a2,10a50 <_malloc_r+0x604>
/home/lucas/Documents/summerwork2015/riscv-material/riscv-tools/riscv-gnu-toolchain/build/src/newlib-gcc/newlib/libc/stdlib/mallocr.c:2447 (discriminator 7)
   10948:	01400613          	li	a2,20
   1094c:	1ee66e63          	bltu	a2,a4,10b48 <_malloc_r+0x6fc>
/home/lucas/Documents/summerwork2015/riscv-material/riscv-tools/riscv-gnu-toolchain/build/src/newlib-gcc/newlib/libc/stdlib/mallocr.c:2447 (discriminator 9)
   10950:	0007071b          	sext.w	a4,a4
   10954:	05c7059b          	addiw	a1,a4,92
   10958:	05b7061b          	addiw	a2,a4,91
   1095c:	0015959b          	slliw	a1,a1,0x1
/home/lucas/Documents/summerwork2015/riscv-material/riscv-tools/riscv-gnu-toolchain/build/src/newlib-gcc/newlib/libc/stdlib/mallocr.c:2447 (discriminator 26)
   10960:	00359593          	slli	a1,a1,0x3
   10964:	00b905b3          	add	a1,s2,a1
   10968:	0005b703          	ld	a4,0(a1)
   1096c:	ff058593          	addi	a1,a1,-16
   10970:	18e58063          	beq	a1,a4,10af0 <_malloc_r+0x6a4>
/home/lucas/Documents/summerwork2015/riscv-material/riscv-tools/riscv-gnu-toolchain/build/src/newlib-gcc/newlib/libc/stdlib/mallocr.c:2447 (discriminator 30)
   10974:	00873603          	ld	a2,8(a4)
   10978:	ffc67613          	andi	a2,a2,-4
   1097c:	00c7f663          	bleu	a2,a5,10988 <_malloc_r+0x53c>
/home/lucas/Documents/summerwork2015/riscv-material/riscv-tools/riscv-gnu-toolchain/build/src/newlib-gcc/newlib/libc/stdlib/mallocr.c:2447 (discriminator 32)
   10980:	01073703          	ld	a4,16(a4)
   10984:	fee598e3          	bne	a1,a4,10974 <_malloc_r+0x528>
/home/lucas/Documents/summerwork2015/riscv-material/riscv-tools/riscv-gnu-toolchain/build/src/newlib-gcc/newlib/libc/stdlib/mallocr.c:2447 (discriminator 33)
   10988:	01873583          	ld	a1,24(a4)
   1098c:	00893783          	ld	a5,8(s2)
/home/lucas/Documents/summerwork2015/riscv-material/riscv-tools/riscv-gnu-toolchain/build/src/newlib-gcc/newlib/libc/stdlib/mallocr.c:2447 (discriminator 34)
   10990:	00b43c23          	sd	a1,24(s0)
   10994:	00e43823          	sd	a4,16(s0)
   10998:	0085b823          	sd	s0,16(a1)
   1099c:	00873c23          	sd	s0,24(a4)
   109a0:	bedff06f          	j	1058c <_malloc_r+0x140>
/home/lucas/Documents/summerwork2015/riscv-material/riscv-tools/riscv-gnu-toolchain/build/src/newlib-gcc/newlib/libc/stdlib/mallocr.c:2425
   109a4:	009407b3          	add	a5,s0,s1
/home/lucas/Documents/summerwork2015/riscv-material/riscv-tools/riscv-gnu-toolchain/build/src/newlib-gcc/newlib/libc/stdlib/mallocr.c:2428
   109a8:	00176613          	ori	a2,a4,1
/home/lucas/Documents/summerwork2015/riscv-material/riscv-tools/riscv-gnu-toolchain/build/src/newlib-gcc/newlib/libc/stdlib/mallocr.c:2429
   109ac:	00e786b3          	add	a3,a5,a4
/home/lucas/Documents/summerwork2015/riscv-material/riscv-tools/riscv-gnu-toolchain/build/src/newlib-gcc/newlib/libc/stdlib/mallocr.c:2426
   109b0:	0014e493          	ori	s1,s1,1
   109b4:	00943423          	sd	s1,8(s0)
/home/lucas/Documents/summerwork2015/riscv-material/riscv-tools/riscv-gnu-toolchain/build/src/newlib-gcc/newlib/libc/stdlib/mallocr.c:2431
   109b8:	00098513          	mv	a0,s3
/home/lucas/Documents/summerwork2015/riscv-material/riscv-tools/riscv-gnu-toolchain/build/src/newlib-gcc/newlib/libc/stdlib/mallocr.c:2427
   109bc:	02f93423          	sd	a5,40(s2)
   109c0:	02f93023          	sd	a5,32(s2)
   109c4:	0107bc23          	sd	a6,24(a5)
   109c8:	0107b823          	sd	a6,16(a5)
/home/lucas/Documents/summerwork2015/riscv-material/riscv-tools/riscv-gnu-toolchain/build/src/newlib-gcc/newlib/libc/stdlib/mallocr.c:2428
   109cc:	00c7b423          	sd	a2,8(a5)
/home/lucas/Documents/summerwork2015/riscv-material/riscv-tools/riscv-gnu-toolchain/build/src/newlib-gcc/newlib/libc/stdlib/mallocr.c:2429
   109d0:	00e6b023          	sd	a4,0(a3)
/home/lucas/Documents/summerwork2015/riscv-material/riscv-tools/riscv-gnu-toolchain/build/src/newlib-gcc/newlib/libc/stdlib/mallocr.c:2431
   109d4:	240000ef          	jal	10c14 <__malloc_unlock>
/home/lucas/Documents/summerwork2015/riscv-material/riscv-tools/riscv-gnu-toolchain/build/src/newlib-gcc/newlib/libc/stdlib/mallocr.c:2432
   109d8:	01040513          	addi	a0,s0,16
   109dc:	ce5ff06f          	j	106c0 <_malloc_r+0x274>
   109e0:	00893783          	ld	a5,8(s2)
   109e4:	ba9ff06f          	j	1058c <_malloc_r+0x140>
/home/lucas/Documents/summerwork2015/riscv-material/riscv-tools/riscv-gnu-toolchain/build/src/newlib-gcc/newlib/libc/stdlib/mallocr.c:2521
   109e8:	0012829b          	addiw	t0,t0,1
   109ec:	0032f793          	andi	a5,t0,3
/home/lucas/Documents/summerwork2015/riscv-material/riscv-tools/riscv-gnu-toolchain/build/src/newlib-gcc/newlib/libc/stdlib/mallocr.c:2512
   109f0:	01058593          	addi	a1,a1,16
/home/lucas/Documents/summerwork2015/riscv-material/riscv-tools/riscv-gnu-toolchain/build/src/newlib-gcc/newlib/libc/stdlib/mallocr.c:2521
   109f4:	be079ae3          	bnez	a5,105e8 <_malloc_r+0x19c>
   109f8:	0900006f          	j	10a88 <_malloc_r+0x63c>
/home/lucas/Documents/summerwork2015/riscv-material/riscv-tools/riscv-gnu-toolchain/build/src/newlib-gcc/newlib/libc/stdlib/mallocr.c:2370
   109fc:	0187b403          	ld	s0,24(a5)
/home/lucas/Documents/summerwork2015/riscv-material/riscv-tools/riscv-gnu-toolchain/build/src/newlib-gcc/newlib/libc/stdlib/mallocr.c:2383
   10a00:	0026869b          	addiw	a3,a3,2
/home/lucas/Documents/summerwork2015/riscv-material/riscv-tools/riscv-gnu-toolchain/build/src/newlib-gcc/newlib/libc/stdlib/mallocr.c:2373
   10a04:	b08786e3          	beq	a5,s0,10510 <_malloc_r+0xc4>
   10a08:	c85ff06f          	j	1068c <_malloc_r+0x240>
/home/lucas/Documents/summerwork2015/riscv-material/riscv-tools/riscv-gnu-toolchain/build/src/newlib-gcc/newlib/libc/stdlib/mallocr.c:2503
   10a0c:	00f407b3          	add	a5,s0,a5
   10a10:	0087b703          	ld	a4,8(a5)
/home/lucas/Documents/summerwork2015/riscv-material/riscv-tools/riscv-gnu-toolchain/build/src/newlib-gcc/newlib/libc/stdlib/mallocr.c:2504
   10a14:	01843683          	ld	a3,24(s0)
   10a18:	01043603          	ld	a2,16(s0)
/home/lucas/Documents/summerwork2015/riscv-material/riscv-tools/riscv-gnu-toolchain/build/src/newlib-gcc/newlib/libc/stdlib/mallocr.c:2503
   10a1c:	00176713          	ori	a4,a4,1
   10a20:	00e7b423          	sd	a4,8(a5)
/home/lucas/Documents/summerwork2015/riscv-material/riscv-tools/riscv-gnu-toolchain/build/src/newlib-gcc/newlib/libc/stdlib/mallocr.c:2506
   10a24:	00098513          	mv	a0,s3
/home/lucas/Documents/summerwork2015/riscv-material/riscv-tools/riscv-gnu-toolchain/build/src/newlib-gcc/newlib/libc/stdlib/mallocr.c:2504
   10a28:	00d63c23          	sd	a3,24(a2)
   10a2c:	00c6b823          	sd	a2,16(a3)
/home/lucas/Documents/summerwork2015/riscv-material/riscv-tools/riscv-gnu-toolchain/build/src/newlib-gcc/newlib/libc/stdlib/mallocr.c:2506
   10a30:	1e4000ef          	jal	10c14 <__malloc_unlock>
/home/lucas/Documents/summerwork2015/riscv-material/riscv-tools/riscv-gnu-toolchain/build/src/newlib-gcc/newlib/libc/stdlib/mallocr.c:2507
   10a34:	01040513          	addi	a0,s0,16
   10a38:	c89ff06f          	j	106c0 <_malloc_r+0x274>
/home/lucas/Documents/summerwork2015/riscv-material/riscv-tools/riscv-gnu-toolchain/build/src/newlib-gcc/newlib/libc/stdlib/mallocr.c:2388 (discriminator 7)
   10a3c:	0007859b          	sext.w	a1,a5
   10a40:	05c5851b          	addiw	a0,a1,92
   10a44:	0015169b          	slliw	a3,a0,0x1
   10a48:	05b5859b          	addiw	a1,a1,91
   10a4c:	a75ff06f          	j	104c0 <_malloc_r+0x74>
/home/lucas/Documents/summerwork2015/riscv-material/riscv-tools/riscv-gnu-toolchain/build/src/newlib-gcc/newlib/libc/stdlib/mallocr.c:2447 (discriminator 6)
   10a50:	0067d713          	srli	a4,a5,0x6
   10a54:	0007071b          	sext.w	a4,a4
   10a58:	0397059b          	addiw	a1,a4,57
   10a5c:	0387061b          	addiw	a2,a4,56
   10a60:	0015959b          	slliw	a1,a1,0x1
   10a64:	efdff06f          	j	10960 <_malloc_r+0x514>
malloc_extend_top():
/home/lucas/Documents/summerwork2015/riscv-material/riscv-tools/riscv-gnu-toolchain/build/src/newlib-gcc/newlib/libc/stdlib/mallocr.c:2164
   10a68:	d7240ce3          	beq	s0,s2,107e0 <_malloc_r+0x394>
   10a6c:	01093403          	ld	s0,16(s2)
   10a70:	00843703          	ld	a4,8(s0)
   10a74:	ffc77713          	andi	a4,a4,-4
   10a78:	e55ff06f          	j	108cc <_malloc_r+0x480>
_malloc_r():
/home/lucas/Documents/summerwork2015/riscv-material/riscv-tools/riscv-gnu-toolchain/build/src/newlib-gcc/newlib/libc/stdlib/mallocr.c:2534
   10a7c:	0108b783          	ld	a5,16(a7)
/home/lucas/Documents/summerwork2015/riscv-material/riscv-tools/riscv-gnu-toolchain/build/src/newlib-gcc/newlib/libc/stdlib/mallocr.c:2532
   10a80:	fff6869b          	addiw	a3,a3,-1
/home/lucas/Documents/summerwork2015/riscv-material/riscv-tools/riscv-gnu-toolchain/build/src/newlib-gcc/newlib/libc/stdlib/mallocr.c:2534
   10a84:	16f89863          	bne	a7,a5,10bf4 <_malloc_r+0x7a8>
/home/lucas/Documents/summerwork2015/riscv-material/riscv-tools/riscv-gnu-toolchain/build/src/newlib-gcc/newlib/libc/stdlib/mallocr.c:2527
   10a88:	0036f793          	andi	a5,a3,3
/home/lucas/Documents/summerwork2015/riscv-material/riscv-tools/riscv-gnu-toolchain/build/src/newlib-gcc/newlib/libc/stdlib/mallocr.c:2533
   10a8c:	ff088893          	addi	a7,a7,-16
/home/lucas/Documents/summerwork2015/riscv-material/riscv-tools/riscv-gnu-toolchain/build/src/newlib-gcc/newlib/libc/stdlib/mallocr.c:2527
   10a90:	fe0796e3          	bnez	a5,10a7c <_malloc_r+0x630>
/home/lucas/Documents/summerwork2015/riscv-material/riscv-tools/riscv-gnu-toolchain/build/src/newlib-gcc/newlib/libc/stdlib/mallocr.c:2529
   10a94:	00893783          	ld	a5,8(s2)
   10a98:	fff64713          	not	a4,a2
   10a9c:	00f777b3          	and	a5,a4,a5
   10aa0:	00f93423          	sd	a5,8(s2)
/home/lucas/Documents/summerwork2015/riscv-material/riscv-tools/riscv-gnu-toolchain/build/src/newlib-gcc/newlib/libc/stdlib/mallocr.c:2538
   10aa4:	00161613          	slli	a2,a2,0x1
   10aa8:	ccc7eae3          	bltu	a5,a2,1077c <_malloc_r+0x330>
/home/lucas/Documents/summerwork2015/riscv-material/riscv-tools/riscv-gnu-toolchain/build/src/newlib-gcc/newlib/libc/stdlib/mallocr.c:2538 (discriminator 1)
   10aac:	cc0608e3          	beqz	a2,1077c <_malloc_r+0x330>
/home/lucas/Documents/summerwork2015/riscv-material/riscv-tools/riscv-gnu-toolchain/build/src/newlib-gcc/newlib/libc/stdlib/mallocr.c:2540
   10ab0:	00f67733          	and	a4,a2,a5
   10ab4:	00028693          	mv	a3,t0
   10ab8:	b0071ae3          	bnez	a4,105cc <_malloc_r+0x180>
/home/lucas/Documents/summerwork2015/riscv-material/riscv-tools/riscv-gnu-toolchain/build/src/newlib-gcc/newlib/libc/stdlib/mallocr.c:2543
   10abc:	00161613          	slli	a2,a2,0x1
/home/lucas/Documents/summerwork2015/riscv-material/riscv-tools/riscv-gnu-toolchain/build/src/newlib-gcc/newlib/libc/stdlib/mallocr.c:2540
   10ac0:	00f67733          	and	a4,a2,a5
/home/lucas/Documents/summerwork2015/riscv-material/riscv-tools/riscv-gnu-toolchain/build/src/newlib-gcc/newlib/libc/stdlib/mallocr.c:2542
   10ac4:	0046869b          	addiw	a3,a3,4
/home/lucas/Documents/summerwork2015/riscv-material/riscv-tools/riscv-gnu-toolchain/build/src/newlib-gcc/newlib/libc/stdlib/mallocr.c:2540
   10ac8:	fe070ae3          	beqz	a4,10abc <_malloc_r+0x670>
   10acc:	b01ff06f          	j	105cc <_malloc_r+0x180>
/home/lucas/Documents/summerwork2015/riscv-material/riscv-tools/riscv-gnu-toolchain/build/src/newlib-gcc/newlib/libc/stdlib/mallocr.c:2388 (discriminator 11)
   10ad0:	15400713          	li	a4,340
   10ad4:	04f76463          	bltu	a4,a5,10b1c <_malloc_r+0x6d0>
/home/lucas/Documents/summerwork2015/riscv-material/riscv-tools/riscv-gnu-toolchain/build/src/newlib-gcc/newlib/libc/stdlib/mallocr.c:2388 (discriminator 13)
   10ad8:	00f4d593          	srli	a1,s1,0xf
   10adc:	0005859b          	sext.w	a1,a1
   10ae0:	0785851b          	addiw	a0,a1,120
   10ae4:	0015169b          	slliw	a3,a0,0x1
   10ae8:	0775859b          	addiw	a1,a1,119
   10aec:	9d5ff06f          	j	104c0 <_malloc_r+0x74>
/home/lucas/Documents/summerwork2015/riscv-material/riscv-tools/riscv-gnu-toolchain/build/src/newlib-gcc/newlib/libc/stdlib/mallocr.c:2447 (discriminator 27)
   10af0:	00893703          	ld	a4,8(s2)
   10af4:	00100793          	li	a5,1
   10af8:	4026561b          	sraiw	a2,a2,0x2
   10afc:	00c79633          	sll	a2,a5,a2
   10b00:	00e667b3          	or	a5,a2,a4
   10b04:	00f93423          	sd	a5,8(s2)
   10b08:	00058713          	mv	a4,a1
   10b0c:	e85ff06f          	j	10990 <_malloc_r+0x544>
malloc_extend_top():
/home/lucas/Documents/summerwork2015/riscv-material/riscv-tools/riscv-gnu-toolchain/build/src/newlib-gcc/newlib/libc/stdlib/mallocr.c:2220
   10b10:	00100793          	li	a5,1
   10b14:	00fab423          	sd	a5,8(s5)
   10b18:	dc5ff06f          	j	108dc <_malloc_r+0x490>
_malloc_r():
/home/lucas/Documents/summerwork2015/riscv-material/riscv-tools/riscv-gnu-toolchain/build/src/newlib-gcc/newlib/libc/stdlib/mallocr.c:2388 (discriminator 14)
   10b1c:	55400713          	li	a4,1364
   10b20:	0fe00693          	li	a3,254
   10b24:	07f00513          	li	a0,127
   10b28:	07e00593          	li	a1,126
   10b2c:	98f76ae3          	bltu	a4,a5,104c0 <_malloc_r+0x74>
/home/lucas/Documents/summerwork2015/riscv-material/riscv-tools/riscv-gnu-toolchain/build/src/newlib-gcc/newlib/libc/stdlib/mallocr.c:2388 (discriminator 16)
   10b30:	0124d593          	srli	a1,s1,0x12
   10b34:	0005859b          	sext.w	a1,a1
   10b38:	07d5851b          	addiw	a0,a1,125
   10b3c:	0015169b          	slliw	a3,a0,0x1
   10b40:	07c5859b          	addiw	a1,a1,124
   10b44:	97dff06f          	j	104c0 <_malloc_r+0x74>
/home/lucas/Documents/summerwork2015/riscv-material/riscv-tools/riscv-gnu-toolchain/build/src/newlib-gcc/newlib/libc/stdlib/mallocr.c:2447 (discriminator 10)
   10b48:	05400613          	li	a2,84
   10b4c:	06e66063          	bltu	a2,a4,10bac <_malloc_r+0x760>
/home/lucas/Documents/summerwork2015/riscv-material/riscv-tools/riscv-gnu-toolchain/build/src/newlib-gcc/newlib/libc/stdlib/mallocr.c:2447 (discriminator 12)
   10b50:	00c7d713          	srli	a4,a5,0xc
   10b54:	0007071b          	sext.w	a4,a4
   10b58:	06f7059b          	addiw	a1,a4,111
   10b5c:	06e7061b          	addiw	a2,a4,110
   10b60:	0015959b          	slliw	a1,a1,0x1
   10b64:	dfdff06f          	j	10960 <_malloc_r+0x514>
malloc_extend_top():
/home/lucas/Documents/summerwork2015/riscv-material/riscv-tools/riscv-gnu-toolchain/build/src/newlib-gcc/newlib/libc/stdlib/mallocr.c:2171
   10b68:	034a1713          	slli	a4,s4,0x34
   10b6c:	c80714e3          	bnez	a4,107f4 <_malloc_r+0x3a8>
/home/lucas/Documents/summerwork2015/riscv-material/riscv-tools/riscv-gnu-toolchain/build/src/newlib-gcc/newlib/libc/stdlib/mallocr.c:2174
   10b70:	01093703          	ld	a4,16(s2)
   10b74:	016b8b33          	add	s6,s7,s6
   10b78:	001b6b13          	ori	s6,s6,1
   10b7c:	01673423          	sd	s6,8(a4)
   10b80:	d29ff06f          	j	108a8 <_malloc_r+0x45c>
/home/lucas/Documents/summerwork2015/riscv-material/riscv-tools/riscv-gnu-toolchain/build/src/newlib-gcc/newlib/libc/stdlib/mallocr.c:2198
   10b84:	00100713          	li	a4,1
   10b88:	00000a13          	li	s4,0
   10b8c:	cd1ff06f          	j	1085c <_malloc_r+0x410>
/home/lucas/Documents/summerwork2015/riscv-material/riscv-tools/riscv-gnu-toolchain/build/src/newlib-gcc/newlib/libc/stdlib/mallocr.c:2179
   10b90:	8151bc23          	sd	s5,-2024(gp) # 14e88 <__malloc_sbrk_base>
   10b94:	c79ff06f          	j	1080c <_malloc_r+0x3c0>
/home/lucas/Documents/summerwork2015/riscv-material/riscv-tools/riscv-gnu-toolchain/build/src/newlib-gcc/newlib/libc/stdlib/mallocr.c:2233
   10b98:	01040593          	addi	a1,s0,16
   10b9c:	00098513          	mv	a0,s3
   10ba0:	129000ef          	jal	114c8 <_free_r>
   10ba4:	000c2783          	lw	a5,0(s8)
   10ba8:	d01ff06f          	j	108a8 <_malloc_r+0x45c>
_malloc_r():
/home/lucas/Documents/summerwork2015/riscv-material/riscv-tools/riscv-gnu-toolchain/build/src/newlib-gcc/newlib/libc/stdlib/mallocr.c:2447 (discriminator 13)
   10bac:	15400613          	li	a2,340
   10bb0:	00e66e63          	bltu	a2,a4,10bcc <_malloc_r+0x780>
/home/lucas/Documents/summerwork2015/riscv-material/riscv-tools/riscv-gnu-toolchain/build/src/newlib-gcc/newlib/libc/stdlib/mallocr.c:2447 (discriminator 15)
   10bb4:	00f7d713          	srli	a4,a5,0xf
   10bb8:	0007071b          	sext.w	a4,a4
   10bbc:	0787059b          	addiw	a1,a4,120
   10bc0:	0777061b          	addiw	a2,a4,119
   10bc4:	0015959b          	slliw	a1,a1,0x1
   10bc8:	d99ff06f          	j	10960 <_malloc_r+0x514>
/home/lucas/Documents/summerwork2015/riscv-material/riscv-tools/riscv-gnu-toolchain/build/src/newlib-gcc/newlib/libc/stdlib/mallocr.c:2447 (discriminator 16)
   10bcc:	55400513          	li	a0,1364
   10bd0:	0fe00593          	li	a1,254
   10bd4:	07e00613          	li	a2,126
   10bd8:	d8e564e3          	bltu	a0,a4,10960 <_malloc_r+0x514>
/home/lucas/Documents/summerwork2015/riscv-material/riscv-tools/riscv-gnu-toolchain/build/src/newlib-gcc/newlib/libc/stdlib/mallocr.c:2447 (discriminator 18)
   10bdc:	0127d713          	srli	a4,a5,0x12
   10be0:	0007071b          	sext.w	a4,a4
   10be4:	07d7059b          	addiw	a1,a4,125
   10be8:	07c7061b          	addiw	a2,a4,124
   10bec:	0015959b          	slliw	a1,a1,0x1
   10bf0:	d71ff06f          	j	10960 <_malloc_r+0x514>
   10bf4:	00893783          	ld	a5,8(s2)
   10bf8:	eadff06f          	j	10aa4 <_malloc_r+0x658>
   10bfc:	0034d693          	srli	a3,s1,0x3
   10c00:	0006869b          	sext.w	a3,a3
   10c04:	0016879b          	addiw	a5,a3,1
   10c08:	0017979b          	slliw	a5,a5,0x1
   10c0c:	a65ff06f          	j	10670 <_malloc_r+0x224>

0000000000010c10 <__malloc_lock>:
__malloc_lock():
   10c10:	00008067          	ret

0000000000010c14 <__malloc_unlock>:
__malloc_unlock():
/home/lucas/Documents/summerwork2015/riscv-material/riscv-tools/riscv-gnu-toolchain/build/src/newlib-gcc/newlib/libc/stdlib/mlock.c:58
   10c14:	00008067          	ret

0000000000010c18 <_puts_r>:
_puts_r():
/home/lucas/Documents/summerwork2015/riscv-material/riscv-tools/riscv-gnu-toolchain/build/src/newlib-gcc/newlib/libc/stdio/puts.c:80
   10c18:	fb010113          	addi	sp,sp,-80
   10c1c:	04813023          	sd	s0,64(sp)
   10c20:	00050413          	mv	s0,a0
/home/lucas/Documents/summerwork2015/riscv-material/riscv-tools/riscv-gnu-toolchain/build/src/newlib-gcc/newlib/libc/stdio/puts.c:81
   10c24:	00058513          	mv	a0,a1
/home/lucas/Documents/summerwork2015/riscv-material/riscv-tools/riscv-gnu-toolchain/build/src/newlib-gcc/newlib/libc/stdio/puts.c:80
   10c28:	02913c23          	sd	s1,56(sp)
   10c2c:	04113423          	sd	ra,72(sp)
   10c30:	00058493          	mv	s1,a1
/home/lucas/Documents/summerwork2015/riscv-material/riscv-tools/riscv-gnu-toolchain/build/src/newlib-gcc/newlib/libc/stdio/puts.c:81
   10c34:	0a8000ef          	jal	10cdc <strlen>
/home/lucas/Documents/summerwork2015/riscv-material/riscv-tools/riscv-gnu-toolchain/build/src/newlib-gcc/newlib/libc/stdio/puts.c:93
   10c38:	8101b783          	ld	a5,-2032(gp) # 14e80 <_impure_ptr>
/home/lucas/Documents/summerwork2015/riscv-material/riscv-tools/riscv-gnu-toolchain/build/src/newlib-gcc/newlib/libc/stdio/puts.c:89
   10c3c:	0015061b          	addiw	a2,a0,1
/home/lucas/Documents/summerwork2015/riscv-material/riscv-tools/riscv-gnu-toolchain/build/src/newlib-gcc/newlib/libc/stdio/puts.c:85
   10c40:	00913823          	sd	s1,16(sp)
/home/lucas/Documents/summerwork2015/riscv-material/riscv-tools/riscv-gnu-toolchain/build/src/newlib-gcc/newlib/libc/stdio/puts.c:93
   10c44:	0107b703          	ld	a4,16(a5)
/home/lucas/Documents/summerwork2015/riscv-material/riscv-tools/riscv-gnu-toolchain/build/src/newlib-gcc/newlib/libc/stdio/puts.c:87
   10c48:	000137b7          	lui	a5,0x13
   10c4c:	49878793          	addi	a5,a5,1176 # 13498 <main+0x158>
/home/lucas/Documents/summerwork2015/riscv-material/riscv-tools/riscv-gnu-toolchain/build/src/newlib-gcc/newlib/libc/stdio/puts.c:93
   10c50:	01071683          	lh	a3,16(a4)
/home/lucas/Documents/summerwork2015/riscv-material/riscv-tools/riscv-gnu-toolchain/build/src/newlib-gcc/newlib/libc/stdio/puts.c:87
   10c54:	02f13023          	sd	a5,32(sp)
/home/lucas/Documents/summerwork2015/riscv-material/riscv-tools/riscv-gnu-toolchain/build/src/newlib-gcc/newlib/libc/stdio/puts.c:88
   10c58:	00100793          	li	a5,1
   10c5c:	02f13423          	sd	a5,40(sp)
/home/lucas/Documents/summerwork2015/riscv-material/riscv-tools/riscv-gnu-toolchain/build/src/newlib-gcc/newlib/libc/stdio/puts.c:90
   10c60:	01010793          	addi	a5,sp,16
   10c64:	00f13023          	sd	a5,0(sp)
/home/lucas/Documents/summerwork2015/riscv-material/riscv-tools/riscv-gnu-toolchain/build/src/newlib-gcc/newlib/libc/stdio/puts.c:91
   10c68:	00200793          	li	a5,2
   10c6c:	00f12423          	sw	a5,8(sp)
/home/lucas/Documents/summerwork2015/riscv-material/riscv-tools/riscv-gnu-toolchain/build/src/newlib-gcc/newlib/libc/stdio/puts.c:93
   10c70:	03269793          	slli	a5,a3,0x32
/home/lucas/Documents/summerwork2015/riscv-material/riscv-tools/riscv-gnu-toolchain/build/src/newlib-gcc/newlib/libc/stdio/puts.c:86
   10c74:	00a13c23          	sd	a0,24(sp)
/home/lucas/Documents/summerwork2015/riscv-material/riscv-tools/riscv-gnu-toolchain/build/src/newlib-gcc/newlib/libc/stdio/puts.c:89
   10c78:	00c12623          	sw	a2,12(sp)
/home/lucas/Documents/summerwork2015/riscv-material/riscv-tools/riscv-gnu-toolchain/build/src/newlib-gcc/newlib/libc/stdio/puts.c:93
   10c7c:	0207c263          	bltz	a5,10ca0 <_puts_r+0x88>
/home/lucas/Documents/summerwork2015/riscv-material/riscv-tools/riscv-gnu-toolchain/build/src/newlib-gcc/newlib/libc/stdio/puts.c:93 (discriminator 1)
   10c80:	0a472583          	lw	a1,164(a4)
   10c84:	ffffe7b7          	lui	a5,0xffffe
   10c88:	00002637          	lui	a2,0x2
   10c8c:	fff7879b          	addiw	a5,a5,-1
   10c90:	00c6e6b3          	or	a3,a3,a2
   10c94:	00f5f7b3          	and	a5,a1,a5
   10c98:	00d71823          	sh	a3,16(a4)
   10c9c:	0af72223          	sw	a5,164(a4)
/home/lucas/Documents/summerwork2015/riscv-material/riscv-tools/riscv-gnu-toolchain/build/src/newlib-gcc/newlib/libc/stdio/puts.c:94
   10ca0:	01043583          	ld	a1,16(s0)
   10ca4:	00010613          	mv	a2,sp
   10ca8:	00040513          	mv	a0,s0
   10cac:	329000ef          	jal	117d4 <__sfvwrite_r>
/home/lucas/Documents/summerwork2015/riscv-material/riscv-tools/riscv-gnu-toolchain/build/src/newlib-gcc/newlib/libc/stdio/puts.c:95
   10cb0:	04813083          	ld	ra,72(sp)
/home/lucas/Documents/summerwork2015/riscv-material/riscv-tools/riscv-gnu-toolchain/build/src/newlib-gcc/newlib/libc/stdio/puts.c:94
   10cb4:	00a03533          	snez	a0,a0
   10cb8:	40a0053b          	negw	a0,a0
/home/lucas/Documents/summerwork2015/riscv-material/riscv-tools/riscv-gnu-toolchain/build/src/newlib-gcc/newlib/libc/stdio/puts.c:95
   10cbc:	00a56513          	ori	a0,a0,10
   10cc0:	04013403          	ld	s0,64(sp)
   10cc4:	03813483          	ld	s1,56(sp)
   10cc8:	05010113          	addi	sp,sp,80
   10ccc:	00008067          	ret

0000000000010cd0 <puts>:
puts():
/home/lucas/Documents/summerwork2015/riscv-material/riscv-tools/riscv-gnu-toolchain/build/src/newlib-gcc/newlib/libc/stdio/puts.c:103
   10cd0:	00050593          	mv	a1,a0
   10cd4:	8101b503          	ld	a0,-2032(gp) # 14e80 <_impure_ptr>
   10cd8:	f41ff06f          	j	10c18 <_puts_r>

0000000000010cdc <strlen>:
strlen():
/home/lucas/Documents/summerwork2015/riscv-material/riscv-tools/riscv-gnu-toolchain/build/src/newlib-gcc/newlib/libc/machine/riscv/strlen.c:13
   10cdc:	00757793          	andi	a5,a0,7
   10ce0:	00050593          	mv	a1,a0
   10ce4:	06079863          	bnez	a5,10d54 <strlen+0x78>
/home/lucas/Documents/summerwork2015/riscv-material/riscv-tools/riscv-gnu-toolchain/build/src/newlib-gcc/newlib/libc/machine/riscv/strlen.c:22 (discriminator 1)
   10ce8:	8281b683          	ld	a3,-2008(gp) # 14e98 <__malloc_trim_threshold+0x8>
   10cec:	fff00613          	li	a2,-1
   10cf0:	00850513          	addi	a0,a0,8
   10cf4:	ff853783          	ld	a5,-8(a0)
   10cf8:	00d7f733          	and	a4,a5,a3
   10cfc:	00d70733          	add	a4,a4,a3
   10d00:	00d7e7b3          	or	a5,a5,a3
   10d04:	00f767b3          	or	a5,a4,a5
   10d08:	fec784e3          	beq	a5,a2,10cf0 <strlen+0x14>
/home/lucas/Documents/summerwork2015/riscv-material/riscv-tools/riscv-gnu-toolchain/build/src/newlib-gcc/newlib/libc/machine/riscv/strlen.c:30
   10d0c:	ff854783          	lbu	a5,-8(a0)
/home/lucas/Documents/summerwork2015/riscv-material/riscv-tools/riscv-gnu-toolchain/build/src/newlib-gcc/newlib/libc/machine/riscv/strlen.c:27
   10d10:	40b505b3          	sub	a1,a0,a1
/home/lucas/Documents/summerwork2015/riscv-material/riscv-tools/riscv-gnu-toolchain/build/src/newlib-gcc/newlib/libc/machine/riscv/strlen.c:30
   10d14:	06078263          	beqz	a5,10d78 <strlen+0x9c>
/home/lucas/Documents/summerwork2015/riscv-material/riscv-tools/riscv-gnu-toolchain/build/src/newlib-gcc/newlib/libc/machine/riscv/strlen.c:31
   10d18:	ff954783          	lbu	a5,-7(a0)
   10d1c:	04078a63          	beqz	a5,10d70 <strlen+0x94>
/home/lucas/Documents/summerwork2015/riscv-material/riscv-tools/riscv-gnu-toolchain/build/src/newlib-gcc/newlib/libc/machine/riscv/strlen.c:32
   10d20:	ffa54783          	lbu	a5,-6(a0)
   10d24:	06078263          	beqz	a5,10d88 <strlen+0xac>
/home/lucas/Documents/summerwork2015/riscv-material/riscv-tools/riscv-gnu-toolchain/build/src/newlib-gcc/newlib/libc/machine/riscv/strlen.c:33 (discriminator 2)
   10d28:	ffb54783          	lbu	a5,-5(a0)
   10d2c:	04078a63          	beqz	a5,10d80 <strlen+0xa4>
/home/lucas/Documents/summerwork2015/riscv-material/riscv-tools/riscv-gnu-toolchain/build/src/newlib-gcc/newlib/libc/machine/riscv/strlen.c:36
   10d30:	ffc54783          	lbu	a5,-4(a0)
/home/lucas/Documents/summerwork2015/riscv-material/riscv-tools/riscv-gnu-toolchain/build/src/newlib-gcc/newlib/libc/machine/riscv/strlen.c:35
   10d34:	ffd54703          	lbu	a4,-3(a0)
   10d38:	ffe54683          	lbu	a3,-2(a0)
/home/lucas/Documents/summerwork2015/riscv-material/riscv-tools/riscv-gnu-toolchain/build/src/newlib-gcc/newlib/libc/machine/riscv/strlen.c:36
   10d3c:	04078a63          	beqz	a5,10d90 <strlen+0xb4>
/home/lucas/Documents/summerwork2015/riscv-material/riscv-tools/riscv-gnu-toolchain/build/src/newlib-gcc/newlib/libc/machine/riscv/strlen.c:37
   10d40:	04070c63          	beqz	a4,10d98 <strlen+0xbc>
/home/lucas/Documents/summerwork2015/riscv-material/riscv-tools/riscv-gnu-toolchain/build/src/newlib-gcc/newlib/libc/machine/riscv/strlen.c:39
   10d44:	fff58513          	addi	a0,a1,-1
/home/lucas/Documents/summerwork2015/riscv-material/riscv-tools/riscv-gnu-toolchain/build/src/newlib-gcc/newlib/libc/machine/riscv/strlen.c:38
   10d48:	04068c63          	beqz	a3,10da0 <strlen+0xc4>
/home/lucas/Documents/summerwork2015/riscv-material/riscv-tools/riscv-gnu-toolchain/build/src/newlib-gcc/newlib/libc/machine/riscv/strlen.c:41
   10d4c:	00008067          	ret
/home/lucas/Documents/summerwork2015/riscv-material/riscv-tools/riscv-gnu-toolchain/build/src/newlib-gcc/newlib/libc/machine/riscv/strlen.c:19
   10d50:	f8070ce3          	beqz	a4,10ce8 <strlen+0xc>
/home/lucas/Documents/summerwork2015/riscv-material/riscv-tools/riscv-gnu-toolchain/build/src/newlib-gcc/newlib/libc/machine/riscv/strlen.c:15
   10d54:	00054783          	lbu	a5,0(a0)
/home/lucas/Documents/summerwork2015/riscv-material/riscv-tools/riscv-gnu-toolchain/build/src/newlib-gcc/newlib/libc/machine/riscv/strlen.c:16
   10d58:	00150513          	addi	a0,a0,1
/home/lucas/Documents/summerwork2015/riscv-material/riscv-tools/riscv-gnu-toolchain/build/src/newlib-gcc/newlib/libc/machine/riscv/strlen.c:19
   10d5c:	00757713          	andi	a4,a0,7
/home/lucas/Documents/summerwork2015/riscv-material/riscv-tools/riscv-gnu-toolchain/build/src/newlib-gcc/newlib/libc/machine/riscv/strlen.c:17
   10d60:	fe0798e3          	bnez	a5,10d50 <strlen+0x74>
/home/lucas/Documents/summerwork2015/riscv-material/riscv-tools/riscv-gnu-toolchain/build/src/newlib-gcc/newlib/libc/machine/riscv/strlen.c:18
   10d64:	40b50533          	sub	a0,a0,a1
   10d68:	fff50513          	addi	a0,a0,-1
   10d6c:	00008067          	ret
/home/lucas/Documents/summerwork2015/riscv-material/riscv-tools/riscv-gnu-toolchain/build/src/newlib-gcc/newlib/libc/machine/riscv/strlen.c:31 (discriminator 1)
   10d70:	ff958513          	addi	a0,a1,-7
   10d74:	00008067          	ret
/home/lucas/Documents/summerwork2015/riscv-material/riscv-tools/riscv-gnu-toolchain/build/src/newlib-gcc/newlib/libc/machine/riscv/strlen.c:30
   10d78:	ff858513          	addi	a0,a1,-8
   10d7c:	00008067          	ret
/home/lucas/Documents/summerwork2015/riscv-material/riscv-tools/riscv-gnu-toolchain/build/src/newlib-gcc/newlib/libc/machine/riscv/strlen.c:33 (discriminator 3)
   10d80:	ffb58513          	addi	a0,a1,-5
   10d84:	00008067          	ret
/home/lucas/Documents/summerwork2015/riscv-material/riscv-tools/riscv-gnu-toolchain/build/src/newlib-gcc/newlib/libc/machine/riscv/strlen.c:32 (discriminator 1)
   10d88:	ffa58513          	addi	a0,a1,-6
   10d8c:	00008067          	ret
/home/lucas/Documents/summerwork2015/riscv-material/riscv-tools/riscv-gnu-toolchain/build/src/newlib-gcc/newlib/libc/machine/riscv/strlen.c:36
   10d90:	ffc58513          	addi	a0,a1,-4
   10d94:	00008067          	ret
/home/lucas/Documents/summerwork2015/riscv-material/riscv-tools/riscv-gnu-toolchain/build/src/newlib-gcc/newlib/libc/machine/riscv/strlen.c:37
   10d98:	ffd58513          	addi	a0,a1,-3
   10d9c:	00008067          	ret
/home/lucas/Documents/summerwork2015/riscv-material/riscv-tools/riscv-gnu-toolchain/build/src/newlib-gcc/newlib/libc/machine/riscv/strlen.c:38
   10da0:	ffe58513          	addi	a0,a1,-2
/home/lucas/Documents/summerwork2015/riscv-material/riscv-tools/riscv-gnu-toolchain/build/src/newlib-gcc/newlib/libc/machine/riscv/strlen.c:41
   10da4:	00008067          	ret

0000000000010da8 <__register_exitproc>:
__register_exitproc():
/home/lucas/Documents/summerwork2015/riscv-material/riscv-tools/riscv-gnu-toolchain/build/src/newlib-gcc/newlib/libc/stdlib/__atexit.c:25
   10da8:	fc010113          	addi	sp,sp,-64
   10dac:	02813823          	sd	s0,48(sp)
/home/lucas/Documents/summerwork2015/riscv-material/riscv-tools/riscv-gnu-toolchain/build/src/newlib-gcc/newlib/libc/stdlib/__atexit.c:35
   10db0:	8081b403          	ld	s0,-2040(gp) # 14e78 <_global_impure_ptr>
/home/lucas/Documents/summerwork2015/riscv-material/riscv-tools/riscv-gnu-toolchain/build/src/newlib-gcc/newlib/libc/stdlib/__atexit.c:25
   10db4:	02913423          	sd	s1,40(sp)
   10db8:	00050493          	mv	s1,a0
/home/lucas/Documents/summerwork2015/riscv-material/riscv-tools/riscv-gnu-toolchain/build/src/newlib-gcc/newlib/libc/stdlib/__atexit.c:35
   10dbc:	1f843503          	ld	a0,504(s0)
/home/lucas/Documents/summerwork2015/riscv-material/riscv-tools/riscv-gnu-toolchain/build/src/newlib-gcc/newlib/libc/stdlib/__atexit.c:25
   10dc0:	02113c23          	sd	ra,56(sp)
/home/lucas/Documents/summerwork2015/riscv-material/riscv-tools/riscv-gnu-toolchain/build/src/newlib-gcc/newlib/libc/stdlib/__atexit.c:36
   10dc4:	0c050a63          	beqz	a0,10e98 <__register_exitproc+0xf0>
/home/lucas/Documents/summerwork2015/riscv-material/riscv-tools/riscv-gnu-toolchain/build/src/newlib-gcc/newlib/libc/stdlib/__atexit.c:38
   10dc8:	00852703          	lw	a4,8(a0)
   10dcc:	01f00793          	li	a5,31
   10dd0:	0017089b          	addiw	a7,a4,1
   10dd4:	04e7da63          	ble	a4,a5,10e28 <__register_exitproc+0x80>
/home/lucas/Documents/summerwork2015/riscv-material/riscv-tools/riscv-gnu-toolchain/build/src/newlib-gcc/newlib/libc/stdlib/__atexit.c:45
   10dd8:	000107b7          	lui	a5,0x10
   10ddc:	43478793          	addi	a5,a5,1076 # 10434 <malloc>
   10de0:	0c078263          	beqz	a5,10ea4 <__register_exitproc+0xfc>
/home/lucas/Documents/summerwork2015/riscv-material/riscv-tools/riscv-gnu-toolchain/build/src/newlib-gcc/newlib/libc/stdlib/__atexit.c:48
   10de4:	31800513          	li	a0,792
   10de8:	00b13c23          	sd	a1,24(sp)
   10dec:	00c13823          	sd	a2,16(sp)
   10df0:	00d13423          	sd	a3,8(sp)
   10df4:	e40ff0ef          	jal	10434 <malloc>
/home/lucas/Documents/summerwork2015/riscv-material/riscv-tools/riscv-gnu-toolchain/build/src/newlib-gcc/newlib/libc/stdlib/__atexit.c:49
   10df8:	01813583          	ld	a1,24(sp)
   10dfc:	01013603          	ld	a2,16(sp)
   10e00:	00813683          	ld	a3,8(sp)
   10e04:	0a050063          	beqz	a0,10ea4 <__register_exitproc+0xfc>
/home/lucas/Documents/summerwork2015/riscv-material/riscv-tools/riscv-gnu-toolchain/build/src/newlib-gcc/newlib/libc/stdlib/__atexit.c:57
   10e08:	1f843783          	ld	a5,504(s0)
/home/lucas/Documents/summerwork2015/riscv-material/riscv-tools/riscv-gnu-toolchain/build/src/newlib-gcc/newlib/libc/stdlib/__atexit.c:61
   10e0c:	00100893          	li	a7,1
/home/lucas/Documents/summerwork2015/riscv-material/riscv-tools/riscv-gnu-toolchain/build/src/newlib-gcc/newlib/libc/stdlib/__atexit.c:56
   10e10:	00052423          	sw	zero,8(a0)
/home/lucas/Documents/summerwork2015/riscv-material/riscv-tools/riscv-gnu-toolchain/build/src/newlib-gcc/newlib/libc/stdlib/__atexit.c:57
   10e14:	00f53023          	sd	a5,0(a0)
/home/lucas/Documents/summerwork2015/riscv-material/riscv-tools/riscv-gnu-toolchain/build/src/newlib-gcc/newlib/libc/stdlib/__atexit.c:61
   10e18:	00000713          	li	a4,0
/home/lucas/Documents/summerwork2015/riscv-material/riscv-tools/riscv-gnu-toolchain/build/src/newlib-gcc/newlib/libc/stdlib/__atexit.c:58
   10e1c:	1ea43c23          	sd	a0,504(s0)
/home/lucas/Documents/summerwork2015/riscv-material/riscv-tools/riscv-gnu-toolchain/build/src/newlib-gcc/newlib/libc/stdlib/__atexit.c:60
   10e20:	30052823          	sw	zero,784(a0)
/home/lucas/Documents/summerwork2015/riscv-material/riscv-tools/riscv-gnu-toolchain/build/src/newlib-gcc/newlib/libc/stdlib/__atexit.c:61
   10e24:	30052a23          	sw	zero,788(a0)
   10e28:	00070793          	mv	a5,a4
/home/lucas/Documents/summerwork2015/riscv-material/riscv-tools/riscv-gnu-toolchain/build/src/newlib-gcc/newlib/libc/stdlib/__atexit.c:66
   10e2c:	02049863          	bnez	s1,10e5c <__register_exitproc+0xb4>
/home/lucas/Documents/summerwork2015/riscv-material/riscv-tools/riscv-gnu-toolchain/build/src/newlib-gcc/newlib/libc/stdlib/__atexit.c:95
   10e30:	00278793          	addi	a5,a5,2
   10e34:	00379793          	slli	a5,a5,0x3
   10e38:	00f507b3          	add	a5,a0,a5
   10e3c:	01152423          	sw	a7,8(a0)
/home/lucas/Documents/summerwork2015/riscv-material/riscv-tools/riscv-gnu-toolchain/build/src/newlib-gcc/newlib/libc/stdlib/__atexit.c:99
   10e40:	00000513          	li	a0,0
/home/lucas/Documents/summerwork2015/riscv-material/riscv-tools/riscv-gnu-toolchain/build/src/newlib-gcc/newlib/libc/stdlib/__atexit.c:95
   10e44:	00b7b023          	sd	a1,0(a5)
/home/lucas/Documents/summerwork2015/riscv-material/riscv-tools/riscv-gnu-toolchain/build/src/newlib-gcc/newlib/libc/stdlib/__atexit.c:100
   10e48:	03813083          	ld	ra,56(sp)
   10e4c:	03013403          	ld	s0,48(sp)
   10e50:	02813483          	ld	s1,40(sp)
   10e54:	04010113          	addi	sp,sp,64
   10e58:	00008067          	ret
   10e5c:	00371813          	slli	a6,a4,0x3
   10e60:	01050833          	add	a6,a0,a6
/home/lucas/Documents/summerwork2015/riscv-material/riscv-tools/riscv-gnu-toolchain/build/src/newlib-gcc/newlib/libc/stdlib/__atexit.c:89
   10e64:	10c83823          	sd	a2,272(a6)
/home/lucas/Documents/summerwork2015/riscv-material/riscv-tools/riscv-gnu-toolchain/build/src/newlib-gcc/newlib/libc/stdlib/__atexit.c:90
   10e68:	31052283          	lw	t0,784(a0)
   10e6c:	00100613          	li	a2,1
   10e70:	00e6173b          	sllw	a4,a2,a4
   10e74:	00e2e633          	or	a2,t0,a4
   10e78:	30c52823          	sw	a2,784(a0)
/home/lucas/Documents/summerwork2015/riscv-material/riscv-tools/riscv-gnu-toolchain/build/src/newlib-gcc/newlib/libc/stdlib/__atexit.c:91
   10e7c:	20d83823          	sd	a3,528(a6)
/home/lucas/Documents/summerwork2015/riscv-material/riscv-tools/riscv-gnu-toolchain/build/src/newlib-gcc/newlib/libc/stdlib/__atexit.c:92
   10e80:	00200693          	li	a3,2
   10e84:	fad496e3          	bne	s1,a3,10e30 <__register_exitproc+0x88>
/home/lucas/Documents/summerwork2015/riscv-material/riscv-tools/riscv-gnu-toolchain/build/src/newlib-gcc/newlib/libc/stdlib/__atexit.c:93
   10e88:	31452683          	lw	a3,788(a0)
   10e8c:	00e6e733          	or	a4,a3,a4
   10e90:	30e52a23          	sw	a4,788(a0)
   10e94:	f9dff06f          	j	10e30 <__register_exitproc+0x88>
/home/lucas/Documents/summerwork2015/riscv-material/riscv-tools/riscv-gnu-toolchain/build/src/newlib-gcc/newlib/libc/stdlib/__atexit.c:37
   10e98:	20040513          	addi	a0,s0,512
   10e9c:	1ea43c23          	sd	a0,504(s0)
   10ea0:	f29ff06f          	j	10dc8 <__register_exitproc+0x20>
/home/lucas/Documents/summerwork2015/riscv-material/riscv-tools/riscv-gnu-toolchain/build/src/newlib-gcc/newlib/libc/stdlib/__atexit.c:46
   10ea4:	fff00513          	li	a0,-1
   10ea8:	fa1ff06f          	j	10e48 <__register_exitproc+0xa0>

0000000000010eac <__call_exitprocs>:
__call_exitprocs():
/home/lucas/Documents/summerwork2015/riscv-material/riscv-tools/riscv-gnu-toolchain/build/src/newlib-gcc/newlib/libc/stdlib/__call_atexit.c:21
   10eac:	fa010113          	addi	sp,sp,-96
   10eb0:	03413823          	sd	s4,48(sp)
   10eb4:	8081ba03          	ld	s4,-2040(gp) # 14e78 <_global_impure_ptr>
   10eb8:	03313c23          	sd	s3,56(sp)
/home/lucas/Documents/summerwork2015/riscv-material/riscv-tools/riscv-gnu-toolchain/build/src/newlib-gcc/newlib/libc/stdlib/__call_atexit.c:84
   10ebc:	000109b7          	lui	s3,0x10
/home/lucas/Documents/summerwork2015/riscv-material/riscv-tools/riscv-gnu-toolchain/build/src/newlib-gcc/newlib/libc/stdlib/__call_atexit.c:21
   10ec0:	04913423          	sd	s1,72(sp)
   10ec4:	05213023          	sd	s2,64(sp)
   10ec8:	03513423          	sd	s5,40(sp)
   10ecc:	01713c23          	sd	s7,24(sp)
   10ed0:	01813823          	sd	s8,16(sp)
   10ed4:	04113c23          	sd	ra,88(sp)
   10ed8:	04813823          	sd	s0,80(sp)
   10edc:	03613023          	sd	s6,32(sp)
   10ee0:	01913423          	sd	s9,8(sp)
   10ee4:	01a13023          	sd	s10,0(sp)
   10ee8:	00050913          	mv	s2,a0
   10eec:	00058b93          	mv	s7,a1
   10ef0:	1f8a0a93          	addi	s5,s4,504
/home/lucas/Documents/summerwork2015/riscv-material/riscv-tools/riscv-gnu-toolchain/build/src/newlib-gcc/newlib/libc/stdlib/__call_atexit.c:65
   10ef4:	00100493          	li	s1,1
/home/lucas/Documents/summerwork2015/riscv-material/riscv-tools/riscv-gnu-toolchain/build/src/newlib-gcc/newlib/libc/stdlib/__call_atexit.c:40
   10ef8:	fff00c13          	li	s8,-1
/home/lucas/Documents/summerwork2015/riscv-material/riscv-tools/riscv-gnu-toolchain/build/src/newlib-gcc/newlib/libc/stdlib/__call_atexit.c:84
   10efc:	44098993          	addi	s3,s3,1088 # 10440 <free>
/home/lucas/Documents/summerwork2015/riscv-material/riscv-tools/riscv-gnu-toolchain/build/src/newlib-gcc/newlib/libc/stdlib/__call_atexit.c:31
   10f00:	1f8a3b03          	ld	s6,504(s4)
/home/lucas/Documents/summerwork2015/riscv-material/riscv-tools/riscv-gnu-toolchain/build/src/newlib-gcc/newlib/libc/stdlib/__call_atexit.c:33
   10f04:	0c0b0463          	beqz	s6,10fcc <__call_exitprocs+0x120>
   10f08:	000a8d13          	mv	s10,s5
/home/lucas/Documents/summerwork2015/riscv-material/riscv-tools/riscv-gnu-toolchain/build/src/newlib-gcc/newlib/libc/stdlib/__call_atexit.c:40
   10f0c:	008b2403          	lw	s0,8(s6)
   10f10:	fff4041b          	addiw	s0,s0,-1
   10f14:	02045263          	bgez	s0,10f38 <__call_exitprocs+0x8c>
   10f18:	08c0006f          	j	10fa4 <__call_exitprocs+0xf8>
/home/lucas/Documents/summerwork2015/riscv-material/riscv-tools/riscv-gnu-toolchain/build/src/newlib-gcc/newlib/libc/stdlib/__call_atexit.c:47 (discriminator 2)
   10f1c:	02040793          	addi	a5,s0,32
   10f20:	00379793          	slli	a5,a5,0x3
   10f24:	00fb07b3          	add	a5,s6,a5
   10f28:	1107b783          	ld	a5,272(a5)
   10f2c:	00fb8a63          	beq	s7,a5,10f40 <__call_exitprocs+0x94>
/home/lucas/Documents/summerwork2015/riscv-material/riscv-tools/riscv-gnu-toolchain/build/src/newlib-gcc/newlib/libc/stdlib/__call_atexit.c:40
   10f30:	fff4041b          	addiw	s0,s0,-1
   10f34:	07840863          	beq	s0,s8,10fa4 <__call_exitprocs+0xf8>
/home/lucas/Documents/summerwork2015/riscv-material/riscv-tools/riscv-gnu-toolchain/build/src/newlib-gcc/newlib/libc/stdlib/__call_atexit.c:47
   10f38:	00040713          	mv	a4,s0
   10f3c:	fe0b90e3          	bnez	s7,10f1c <__call_exitprocs+0x70>
/home/lucas/Documents/summerwork2015/riscv-material/riscv-tools/riscv-gnu-toolchain/build/src/newlib-gcc/newlib/libc/stdlib/__call_atexit.c:53
   10f40:	008b2783          	lw	a5,8(s6)
   10f44:	00371713          	slli	a4,a4,0x3
   10f48:	00eb0733          	add	a4,s6,a4
   10f4c:	fff7879b          	addiw	a5,a5,-1
/home/lucas/Documents/summerwork2015/riscv-material/riscv-tools/riscv-gnu-toolchain/build/src/newlib-gcc/newlib/libc/stdlib/__call_atexit.c:52
   10f50:	01073683          	ld	a3,16(a4)
/home/lucas/Documents/summerwork2015/riscv-material/riscv-tools/riscv-gnu-toolchain/build/src/newlib-gcc/newlib/libc/stdlib/__call_atexit.c:53
   10f54:	0a878c63          	beq	a5,s0,1100c <__call_exitprocs+0x160>
/home/lucas/Documents/summerwork2015/riscv-material/riscv-tools/riscv-gnu-toolchain/build/src/newlib-gcc/newlib/libc/stdlib/__call_atexit.c:56
   10f58:	00073823          	sd	zero,16(a4)
/home/lucas/Documents/summerwork2015/riscv-material/riscv-tools/riscv-gnu-toolchain/build/src/newlib-gcc/newlib/libc/stdlib/__call_atexit.c:59
   10f5c:	fc068ae3          	beqz	a3,10f30 <__call_exitprocs+0x84>
/home/lucas/Documents/summerwork2015/riscv-material/riscv-tools/riscv-gnu-toolchain/build/src/newlib-gcc/newlib/libc/stdlib/__call_atexit.c:65
   10f60:	310b2783          	lw	a5,784(s6)
   10f64:	0084963b          	sllw	a2,s1,s0
/home/lucas/Documents/summerwork2015/riscv-material/riscv-tools/riscv-gnu-toolchain/build/src/newlib-gcc/newlib/libc/stdlib/__call_atexit.c:62
   10f68:	008b2c83          	lw	s9,8(s6)
/home/lucas/Documents/summerwork2015/riscv-material/riscv-tools/riscv-gnu-toolchain/build/src/newlib-gcc/newlib/libc/stdlib/__call_atexit.c:65
   10f6c:	00f677b3          	and	a5,a2,a5
   10f70:	08078a63          	beqz	a5,11004 <__call_exitprocs+0x158>
/home/lucas/Documents/summerwork2015/riscv-material/riscv-tools/riscv-gnu-toolchain/build/src/newlib-gcc/newlib/libc/stdlib/__call_atexit.c:67
   10f74:	314b2783          	lw	a5,788(s6)
   10f78:	00f67633          	and	a2,a2,a5
   10f7c:	08061c63          	bnez	a2,11014 <__call_exitprocs+0x168>
/home/lucas/Documents/summerwork2015/riscv-material/riscv-tools/riscv-gnu-toolchain/build/src/newlib-gcc/newlib/libc/stdlib/__call_atexit.c:68
   10f80:	11073583          	ld	a1,272(a4)
   10f84:	00090513          	mv	a0,s2
   10f88:	000680e7          	jalr	a3
/home/lucas/Documents/summerwork2015/riscv-material/riscv-tools/riscv-gnu-toolchain/build/src/newlib-gcc/newlib/libc/stdlib/__call_atexit.c:75
   10f8c:	008b2783          	lw	a5,8(s6)
   10f90:	f79798e3          	bne	a5,s9,10f00 <__call_exitprocs+0x54>
/home/lucas/Documents/summerwork2015/riscv-material/riscv-tools/riscv-gnu-toolchain/build/src/newlib-gcc/newlib/libc/stdlib/__call_atexit.c:75 (discriminator 1)
   10f94:	000d3783          	ld	a5,0(s10)
   10f98:	f76794e3          	bne	a5,s6,10f00 <__call_exitprocs+0x54>
/home/lucas/Documents/summerwork2015/riscv-material/riscv-tools/riscv-gnu-toolchain/build/src/newlib-gcc/newlib/libc/stdlib/__call_atexit.c:40
   10f9c:	fff4041b          	addiw	s0,s0,-1
   10fa0:	f9841ce3          	bne	s0,s8,10f38 <__call_exitprocs+0x8c>
/home/lucas/Documents/summerwork2015/riscv-material/riscv-tools/riscv-gnu-toolchain/build/src/newlib-gcc/newlib/libc/stdlib/__call_atexit.c:84
   10fa4:	02098463          	beqz	s3,10fcc <__call_exitprocs+0x120>
/home/lucas/Documents/summerwork2015/riscv-material/riscv-tools/riscv-gnu-toolchain/build/src/newlib-gcc/newlib/libc/stdlib/__call_atexit.c:89
   10fa8:	008b2783          	lw	a5,8(s6)
   10fac:	06079a63          	bnez	a5,11020 <__call_exitprocs+0x174>
/home/lucas/Documents/summerwork2015/riscv-material/riscv-tools/riscv-gnu-toolchain/build/src/newlib-gcc/newlib/libc/stdlib/__call_atexit.c:89 (discriminator 1)
   10fb0:	000b3783          	ld	a5,0(s6)
   10fb4:	08078063          	beqz	a5,11034 <__call_exitprocs+0x188>
/home/lucas/Documents/summerwork2015/riscv-material/riscv-tools/riscv-gnu-toolchain/build/src/newlib-gcc/newlib/libc/stdlib/__call_atexit.c:97
   10fb8:	000b0513          	mv	a0,s6
/home/lucas/Documents/summerwork2015/riscv-material/riscv-tools/riscv-gnu-toolchain/build/src/newlib-gcc/newlib/libc/stdlib/__call_atexit.c:92
   10fbc:	00fd3023          	sd	a5,0(s10)
/home/lucas/Documents/summerwork2015/riscv-material/riscv-tools/riscv-gnu-toolchain/build/src/newlib-gcc/newlib/libc/stdlib/__call_atexit.c:97
   10fc0:	c80ff0ef          	jal	10440 <free>
/home/lucas/Documents/summerwork2015/riscv-material/riscv-tools/riscv-gnu-toolchain/build/src/newlib-gcc/newlib/libc/stdlib/__call_atexit.c:98
   10fc4:	000d3b03          	ld	s6,0(s10)
/home/lucas/Documents/summerwork2015/riscv-material/riscv-tools/riscv-gnu-toolchain/build/src/newlib-gcc/newlib/libc/stdlib/__call_atexit.c:33
   10fc8:	f40b12e3          	bnez	s6,10f0c <__call_exitprocs+0x60>
/home/lucas/Documents/summerwork2015/riscv-material/riscv-tools/riscv-gnu-toolchain/build/src/newlib-gcc/newlib/libc/stdlib/__call_atexit.c:107
   10fcc:	05813083          	ld	ra,88(sp)
   10fd0:	05013403          	ld	s0,80(sp)
   10fd4:	04813483          	ld	s1,72(sp)
   10fd8:	04013903          	ld	s2,64(sp)
   10fdc:	03813983          	ld	s3,56(sp)
   10fe0:	03013a03          	ld	s4,48(sp)
   10fe4:	02813a83          	ld	s5,40(sp)
   10fe8:	02013b03          	ld	s6,32(sp)
   10fec:	01813b83          	ld	s7,24(sp)
   10ff0:	01013c03          	ld	s8,16(sp)
   10ff4:	00813c83          	ld	s9,8(sp)
   10ff8:	00013d03          	ld	s10,0(sp)
   10ffc:	06010113          	addi	sp,sp,96
   11000:	00008067          	ret
/home/lucas/Documents/summerwork2015/riscv-material/riscv-tools/riscv-gnu-toolchain/build/src/newlib-gcc/newlib/libc/stdlib/__call_atexit.c:66
   11004:	000680e7          	jalr	a3
   11008:	f85ff06f          	j	10f8c <__call_exitprocs+0xe0>
/home/lucas/Documents/summerwork2015/riscv-material/riscv-tools/riscv-gnu-toolchain/build/src/newlib-gcc/newlib/libc/stdlib/__call_atexit.c:54
   1100c:	008b2423          	sw	s0,8(s6)
   11010:	f4dff06f          	j	10f5c <__call_exitprocs+0xb0>
/home/lucas/Documents/summerwork2015/riscv-material/riscv-tools/riscv-gnu-toolchain/build/src/newlib-gcc/newlib/libc/stdlib/__call_atexit.c:70
   11014:	11073503          	ld	a0,272(a4)
   11018:	000680e7          	jalr	a3
   1101c:	f71ff06f          	j	10f8c <__call_exitprocs+0xe0>
   11020:	000b3783          	ld	a5,0(s6)
/home/lucas/Documents/summerwork2015/riscv-material/riscv-tools/riscv-gnu-toolchain/build/src/newlib-gcc/newlib/libc/stdlib/__call_atexit.c:102
   11024:	000b0d13          	mv	s10,s6
/home/lucas/Documents/summerwork2015/riscv-material/riscv-tools/riscv-gnu-toolchain/build/src/newlib-gcc/newlib/libc/stdlib/__call_atexit.c:103
   11028:	00078b13          	mv	s6,a5
/home/lucas/Documents/summerwork2015/riscv-material/riscv-tools/riscv-gnu-toolchain/build/src/newlib-gcc/newlib/libc/stdlib/__call_atexit.c:33
   1102c:	ee0b10e3          	bnez	s6,10f0c <__call_exitprocs+0x60>
   11030:	f9dff06f          	j	10fcc <__call_exitprocs+0x120>
   11034:	00000793          	li	a5,0
   11038:	fedff06f          	j	11024 <__call_exitprocs+0x178>

000000000001103c <__fp_unlock>:
__fp_unlock():
/home/lucas/Documents/summerwork2015/riscv-material/riscv-tools/riscv-gnu-toolchain/build/src/newlib-gcc/newlib/libc/stdio/findfp.c:277
   1103c:	00000513          	li	a0,0
   11040:	00008067          	ret

0000000000011044 <_cleanup_r>:
_cleanup_r():
/home/lucas/Documents/summerwork2015/riscv-material/riscv-tools/riscv-gnu-toolchain/build/src/newlib-gcc/newlib/libc/stdio/findfp.c:165
   11044:	000135b7          	lui	a1,0x13
   11048:	b0458593          	addi	a1,a1,-1276 # 12b04 <fclose>
   1104c:	4550006f          	j	11ca0 <_fwalk>

0000000000011050 <__sinit.part.1>:
__sinit():
/home/lucas/Documents/summerwork2015/riscv-material/riscv-tools/riscv-gnu-toolchain/build/src/newlib-gcc/newlib/libc/stdio/findfp.c:182
   11050:	fb010113          	addi	sp,sp,-80
/home/lucas/Documents/summerwork2015/riscv-material/riscv-tools/riscv-gnu-toolchain/build/src/newlib-gcc/newlib/libc/stdio/findfp.c:194
   11054:	000117b7          	lui	a5,0x11
/home/lucas/Documents/summerwork2015/riscv-material/riscv-tools/riscv-gnu-toolchain/build/src/newlib-gcc/newlib/libc/stdio/findfp.c:182
   11058:	04813023          	sd	s0,64(sp)
/home/lucas/Documents/summerwork2015/riscv-material/riscv-tools/riscv-gnu-toolchain/build/src/newlib-gcc/newlib/libc/stdio/findfp.c:194
   1105c:	04478793          	addi	a5,a5,68 # 11044 <_cleanup_r>
/home/lucas/Documents/summerwork2015/riscv-material/riscv-tools/riscv-gnu-toolchain/build/src/newlib-gcc/newlib/libc/stdio/findfp.c:209
   11060:	00853403          	ld	s0,8(a0)
/home/lucas/Documents/summerwork2015/riscv-material/riscv-tools/riscv-gnu-toolchain/build/src/newlib-gcc/newlib/libc/stdio/findfp.c:182
   11064:	04113423          	sd	ra,72(sp)
   11068:	02913c23          	sd	s1,56(sp)
   1106c:	03213823          	sd	s2,48(sp)
   11070:	03313423          	sd	s3,40(sp)
   11074:	03413023          	sd	s4,32(sp)
   11078:	01513c23          	sd	s5,24(sp)
   1107c:	01613823          	sd	s6,16(sp)
   11080:	01713423          	sd	s7,8(sp)
/home/lucas/Documents/summerwork2015/riscv-material/riscv-tools/riscv-gnu-toolchain/build/src/newlib-gcc/newlib/libc/stdio/findfp.c:194
   11084:	04f53c23          	sd	a5,88(a0)
/home/lucas/Documents/summerwork2015/riscv-material/riscv-tools/riscv-gnu-toolchain/build/src/newlib-gcc/newlib/libc/stdio/findfp.c:199
   11088:	00300793          	li	a5,3
   1108c:	52f52423          	sw	a5,1320(a0)
/home/lucas/Documents/summerwork2015/riscv-material/riscv-tools/riscv-gnu-toolchain/build/src/newlib-gcc/newlib/libc/stdio/findfp.c:200
   11090:	53850713          	addi	a4,a0,1336
/home/lucas/Documents/summerwork2015/riscv-material/riscv-tools/riscv-gnu-toolchain/build/src/newlib-gcc/newlib/libc/stdio/findfp.c:195
   11094:	00100b93          	li	s7,1
std():
/home/lucas/Documents/summerwork2015/riscv-material/riscv-tools/riscv-gnu-toolchain/build/src/newlib-gcc/newlib/libc/stdio/findfp.c:48
   11098:	00400793          	li	a5,4
__sinit():
/home/lucas/Documents/summerwork2015/riscv-material/riscv-tools/riscv-gnu-toolchain/build/src/newlib-gcc/newlib/libc/stdio/findfp.c:200
   1109c:	52e53823          	sd	a4,1328(a0)
/home/lucas/Documents/summerwork2015/riscv-material/riscv-tools/riscv-gnu-toolchain/build/src/newlib-gcc/newlib/libc/stdio/findfp.c:195
   110a0:	05752823          	sw	s7,80(a0)
/home/lucas/Documents/summerwork2015/riscv-material/riscv-tools/riscv-gnu-toolchain/build/src/newlib-gcc/newlib/libc/stdio/findfp.c:197
   110a4:	52053023          	sd	zero,1312(a0)
/home/lucas/Documents/summerwork2015/riscv-material/riscv-tools/riscv-gnu-toolchain/build/src/newlib-gcc/newlib/libc/stdio/findfp.c:182
   110a8:	00050913          	mv	s2,a0
std():
/home/lucas/Documents/summerwork2015/riscv-material/riscv-tools/riscv-gnu-toolchain/build/src/newlib-gcc/newlib/libc/stdio/findfp.c:48
   110ac:	00f41823          	sh	a5,16(s0)
/home/lucas/Documents/summerwork2015/riscv-material/riscv-tools/riscv-gnu-toolchain/build/src/newlib-gcc/newlib/libc/stdio/findfp.c:54
   110b0:	00800613          	li	a2,8
   110b4:	00000593          	li	a1,0
/home/lucas/Documents/summerwork2015/riscv-material/riscv-tools/riscv-gnu-toolchain/build/src/newlib-gcc/newlib/libc/stdio/findfp.c:45
   110b8:	00043023          	sd	zero,0(s0)
/home/lucas/Documents/summerwork2015/riscv-material/riscv-tools/riscv-gnu-toolchain/build/src/newlib-gcc/newlib/libc/stdio/findfp.c:46
   110bc:	00042423          	sw	zero,8(s0)
/home/lucas/Documents/summerwork2015/riscv-material/riscv-tools/riscv-gnu-toolchain/build/src/newlib-gcc/newlib/libc/stdio/findfp.c:47
   110c0:	00042623          	sw	zero,12(s0)
/home/lucas/Documents/summerwork2015/riscv-material/riscv-tools/riscv-gnu-toolchain/build/src/newlib-gcc/newlib/libc/stdio/findfp.c:49
   110c4:	0a042223          	sw	zero,164(s0)
/home/lucas/Documents/summerwork2015/riscv-material/riscv-tools/riscv-gnu-toolchain/build/src/newlib-gcc/newlib/libc/stdio/findfp.c:50
   110c8:	00041923          	sh	zero,18(s0)
/home/lucas/Documents/summerwork2015/riscv-material/riscv-tools/riscv-gnu-toolchain/build/src/newlib-gcc/newlib/libc/stdio/findfp.c:51
   110cc:	00043c23          	sd	zero,24(s0)
/home/lucas/Documents/summerwork2015/riscv-material/riscv-tools/riscv-gnu-toolchain/build/src/newlib-gcc/newlib/libc/stdio/findfp.c:52
   110d0:	02042023          	sw	zero,32(s0)
/home/lucas/Documents/summerwork2015/riscv-material/riscv-tools/riscv-gnu-toolchain/build/src/newlib-gcc/newlib/libc/stdio/findfp.c:53
   110d4:	02042423          	sw	zero,40(s0)
/home/lucas/Documents/summerwork2015/riscv-material/riscv-tools/riscv-gnu-toolchain/build/src/newlib-gcc/newlib/libc/stdio/findfp.c:54
   110d8:	09c40513          	addi	a0,s0,156
   110dc:	02c010ef          	jal	12108 <memset>
__sinit():
/home/lucas/Documents/summerwork2015/riscv-material/riscv-tools/riscv-gnu-toolchain/build/src/newlib-gcc/newlib/libc/stdio/findfp.c:220
   110e0:	01093483          	ld	s1,16(s2)
std():
/home/lucas/Documents/summerwork2015/riscv-material/riscv-tools/riscv-gnu-toolchain/build/src/newlib-gcc/newlib/libc/stdio/findfp.c:56
   110e4:	00012b37          	lui	s6,0x12
/home/lucas/Documents/summerwork2015/riscv-material/riscv-tools/riscv-gnu-toolchain/build/src/newlib-gcc/newlib/libc/stdio/findfp.c:58
   110e8:	00012ab7          	lui	s5,0x12
/home/lucas/Documents/summerwork2015/riscv-material/riscv-tools/riscv-gnu-toolchain/build/src/newlib-gcc/newlib/libc/stdio/findfp.c:64
   110ec:	00013a37          	lui	s4,0x13
/home/lucas/Documents/summerwork2015/riscv-material/riscv-tools/riscv-gnu-toolchain/build/src/newlib-gcc/newlib/libc/stdio/findfp.c:65
   110f0:	000139b7          	lui	s3,0x13
/home/lucas/Documents/summerwork2015/riscv-material/riscv-tools/riscv-gnu-toolchain/build/src/newlib-gcc/newlib/libc/stdio/findfp.c:56
   110f4:	75cb0b13          	addi	s6,s6,1884 # 1275c <__sread>
/home/lucas/Documents/summerwork2015/riscv-material/riscv-tools/riscv-gnu-toolchain/build/src/newlib-gcc/newlib/libc/stdio/findfp.c:58
   110f8:	7c8a8a93          	addi	s5,s5,1992 # 127c8 <__swrite>
/home/lucas/Documents/summerwork2015/riscv-material/riscv-tools/riscv-gnu-toolchain/build/src/newlib-gcc/newlib/libc/stdio/findfp.c:64
   110fc:	838a0a13          	addi	s4,s4,-1992 # 12838 <__sseek>
/home/lucas/Documents/summerwork2015/riscv-material/riscv-tools/riscv-gnu-toolchain/build/src/newlib-gcc/newlib/libc/stdio/findfp.c:65
   11100:	8a498993          	addi	s3,s3,-1884 # 128a4 <__sclose>
/home/lucas/Documents/summerwork2015/riscv-material/riscv-tools/riscv-gnu-toolchain/build/src/newlib-gcc/newlib/libc/stdio/findfp.c:48
   11104:	00900793          	li	a5,9
/home/lucas/Documents/summerwork2015/riscv-material/riscv-tools/riscv-gnu-toolchain/build/src/newlib-gcc/newlib/libc/stdio/findfp.c:56
   11108:	03643c23          	sd	s6,56(s0)
/home/lucas/Documents/summerwork2015/riscv-material/riscv-tools/riscv-gnu-toolchain/build/src/newlib-gcc/newlib/libc/stdio/findfp.c:58
   1110c:	05543023          	sd	s5,64(s0)
/home/lucas/Documents/summerwork2015/riscv-material/riscv-tools/riscv-gnu-toolchain/build/src/newlib-gcc/newlib/libc/stdio/findfp.c:64
   11110:	05443423          	sd	s4,72(s0)
/home/lucas/Documents/summerwork2015/riscv-material/riscv-tools/riscv-gnu-toolchain/build/src/newlib-gcc/newlib/libc/stdio/findfp.c:65
   11114:	05343823          	sd	s3,80(s0)
/home/lucas/Documents/summerwork2015/riscv-material/riscv-tools/riscv-gnu-toolchain/build/src/newlib-gcc/newlib/libc/stdio/findfp.c:55
   11118:	02843823          	sd	s0,48(s0)
/home/lucas/Documents/summerwork2015/riscv-material/riscv-tools/riscv-gnu-toolchain/build/src/newlib-gcc/newlib/libc/stdio/findfp.c:54
   1111c:	00800613          	li	a2,8
/home/lucas/Documents/summerwork2015/riscv-material/riscv-tools/riscv-gnu-toolchain/build/src/newlib-gcc/newlib/libc/stdio/findfp.c:48
   11120:	00f49823          	sh	a5,16(s1)
/home/lucas/Documents/summerwork2015/riscv-material/riscv-tools/riscv-gnu-toolchain/build/src/newlib-gcc/newlib/libc/stdio/findfp.c:50
   11124:	01749923          	sh	s7,18(s1)
/home/lucas/Documents/summerwork2015/riscv-material/riscv-tools/riscv-gnu-toolchain/build/src/newlib-gcc/newlib/libc/stdio/findfp.c:54
   11128:	00000593          	li	a1,0
/home/lucas/Documents/summerwork2015/riscv-material/riscv-tools/riscv-gnu-toolchain/build/src/newlib-gcc/newlib/libc/stdio/findfp.c:45
   1112c:	0004b023          	sd	zero,0(s1)
/home/lucas/Documents/summerwork2015/riscv-material/riscv-tools/riscv-gnu-toolchain/build/src/newlib-gcc/newlib/libc/stdio/findfp.c:46
   11130:	0004a423          	sw	zero,8(s1)
/home/lucas/Documents/summerwork2015/riscv-material/riscv-tools/riscv-gnu-toolchain/build/src/newlib-gcc/newlib/libc/stdio/findfp.c:47
   11134:	0004a623          	sw	zero,12(s1)
/home/lucas/Documents/summerwork2015/riscv-material/riscv-tools/riscv-gnu-toolchain/build/src/newlib-gcc/newlib/libc/stdio/findfp.c:49
   11138:	0a04a223          	sw	zero,164(s1)
/home/lucas/Documents/summerwork2015/riscv-material/riscv-tools/riscv-gnu-toolchain/build/src/newlib-gcc/newlib/libc/stdio/findfp.c:51
   1113c:	0004bc23          	sd	zero,24(s1)
/home/lucas/Documents/summerwork2015/riscv-material/riscv-tools/riscv-gnu-toolchain/build/src/newlib-gcc/newlib/libc/stdio/findfp.c:52
   11140:	0204a023          	sw	zero,32(s1)
/home/lucas/Documents/summerwork2015/riscv-material/riscv-tools/riscv-gnu-toolchain/build/src/newlib-gcc/newlib/libc/stdio/findfp.c:53
   11144:	0204a423          	sw	zero,40(s1)
/home/lucas/Documents/summerwork2015/riscv-material/riscv-tools/riscv-gnu-toolchain/build/src/newlib-gcc/newlib/libc/stdio/findfp.c:54
   11148:	09c48513          	addi	a0,s1,156
   1114c:	7bd000ef          	jal	12108 <memset>
__sinit():
/home/lucas/Documents/summerwork2015/riscv-material/riscv-tools/riscv-gnu-toolchain/build/src/newlib-gcc/newlib/libc/stdio/findfp.c:225
   11150:	01893403          	ld	s0,24(s2)
std():
/home/lucas/Documents/summerwork2015/riscv-material/riscv-tools/riscv-gnu-toolchain/build/src/newlib-gcc/newlib/libc/stdio/findfp.c:48
   11154:	01200793          	li	a5,18
/home/lucas/Documents/summerwork2015/riscv-material/riscv-tools/riscv-gnu-toolchain/build/src/newlib-gcc/newlib/libc/stdio/findfp.c:56
   11158:	0364bc23          	sd	s6,56(s1)
/home/lucas/Documents/summerwork2015/riscv-material/riscv-tools/riscv-gnu-toolchain/build/src/newlib-gcc/newlib/libc/stdio/findfp.c:58
   1115c:	0554b023          	sd	s5,64(s1)
/home/lucas/Documents/summerwork2015/riscv-material/riscv-tools/riscv-gnu-toolchain/build/src/newlib-gcc/newlib/libc/stdio/findfp.c:64
   11160:	0544b423          	sd	s4,72(s1)
/home/lucas/Documents/summerwork2015/riscv-material/riscv-tools/riscv-gnu-toolchain/build/src/newlib-gcc/newlib/libc/stdio/findfp.c:65
   11164:	0534b823          	sd	s3,80(s1)
/home/lucas/Documents/summerwork2015/riscv-material/riscv-tools/riscv-gnu-toolchain/build/src/newlib-gcc/newlib/libc/stdio/findfp.c:55
   11168:	0294b823          	sd	s1,48(s1)
/home/lucas/Documents/summerwork2015/riscv-material/riscv-tools/riscv-gnu-toolchain/build/src/newlib-gcc/newlib/libc/stdio/findfp.c:48
   1116c:	00f41823          	sh	a5,16(s0)
/home/lucas/Documents/summerwork2015/riscv-material/riscv-tools/riscv-gnu-toolchain/build/src/newlib-gcc/newlib/libc/stdio/findfp.c:50
   11170:	00200793          	li	a5,2
/home/lucas/Documents/summerwork2015/riscv-material/riscv-tools/riscv-gnu-toolchain/build/src/newlib-gcc/newlib/libc/stdio/findfp.c:45
   11174:	00043023          	sd	zero,0(s0)
/home/lucas/Documents/summerwork2015/riscv-material/riscv-tools/riscv-gnu-toolchain/build/src/newlib-gcc/newlib/libc/stdio/findfp.c:46
   11178:	00042423          	sw	zero,8(s0)
/home/lucas/Documents/summerwork2015/riscv-material/riscv-tools/riscv-gnu-toolchain/build/src/newlib-gcc/newlib/libc/stdio/findfp.c:47
   1117c:	00042623          	sw	zero,12(s0)
/home/lucas/Documents/summerwork2015/riscv-material/riscv-tools/riscv-gnu-toolchain/build/src/newlib-gcc/newlib/libc/stdio/findfp.c:49
   11180:	0a042223          	sw	zero,164(s0)
/home/lucas/Documents/summerwork2015/riscv-material/riscv-tools/riscv-gnu-toolchain/build/src/newlib-gcc/newlib/libc/stdio/findfp.c:50
   11184:	00f41923          	sh	a5,18(s0)
/home/lucas/Documents/summerwork2015/riscv-material/riscv-tools/riscv-gnu-toolchain/build/src/newlib-gcc/newlib/libc/stdio/findfp.c:51
   11188:	00043c23          	sd	zero,24(s0)
/home/lucas/Documents/summerwork2015/riscv-material/riscv-tools/riscv-gnu-toolchain/build/src/newlib-gcc/newlib/libc/stdio/findfp.c:52
   1118c:	02042023          	sw	zero,32(s0)
/home/lucas/Documents/summerwork2015/riscv-material/riscv-tools/riscv-gnu-toolchain/build/src/newlib-gcc/newlib/libc/stdio/findfp.c:53
   11190:	02042423          	sw	zero,40(s0)
/home/lucas/Documents/summerwork2015/riscv-material/riscv-tools/riscv-gnu-toolchain/build/src/newlib-gcc/newlib/libc/stdio/findfp.c:54
   11194:	09c40513          	addi	a0,s0,156
   11198:	00800613          	li	a2,8
   1119c:	00000593          	li	a1,0
   111a0:	769000ef          	jal	12108 <memset>
__sinit():
/home/lucas/Documents/summerwork2015/riscv-material/riscv-tools/riscv-gnu-toolchain/build/src/newlib-gcc/newlib/libc/stdio/findfp.c:228
   111a4:	04813083          	ld	ra,72(sp)
std():
/home/lucas/Documents/summerwork2015/riscv-material/riscv-tools/riscv-gnu-toolchain/build/src/newlib-gcc/newlib/libc/stdio/findfp.c:56
   111a8:	03643c23          	sd	s6,56(s0)
/home/lucas/Documents/summerwork2015/riscv-material/riscv-tools/riscv-gnu-toolchain/build/src/newlib-gcc/newlib/libc/stdio/findfp.c:58
   111ac:	05543023          	sd	s5,64(s0)
/home/lucas/Documents/summerwork2015/riscv-material/riscv-tools/riscv-gnu-toolchain/build/src/newlib-gcc/newlib/libc/stdio/findfp.c:64
   111b0:	05443423          	sd	s4,72(s0)
/home/lucas/Documents/summerwork2015/riscv-material/riscv-tools/riscv-gnu-toolchain/build/src/newlib-gcc/newlib/libc/stdio/findfp.c:65
   111b4:	05343823          	sd	s3,80(s0)
/home/lucas/Documents/summerwork2015/riscv-material/riscv-tools/riscv-gnu-toolchain/build/src/newlib-gcc/newlib/libc/stdio/findfp.c:55
   111b8:	02843823          	sd	s0,48(s0)
__sinit():
/home/lucas/Documents/summerwork2015/riscv-material/riscv-tools/riscv-gnu-toolchain/build/src/newlib-gcc/newlib/libc/stdio/findfp.c:228
   111bc:	03813483          	ld	s1,56(sp)
   111c0:	04013403          	ld	s0,64(sp)
   111c4:	03013903          	ld	s2,48(sp)
   111c8:	02813983          	ld	s3,40(sp)
   111cc:	02013a03          	ld	s4,32(sp)
   111d0:	01813a83          	ld	s5,24(sp)
   111d4:	01013b03          	ld	s6,16(sp)
   111d8:	00813b83          	ld	s7,8(sp)
   111dc:	05010113          	addi	sp,sp,80
   111e0:	00008067          	ret

00000000000111e4 <__fp_lock>:
__fp_lock():
   111e4:	00000513          	li	a0,0
   111e8:	00008067          	ret

00000000000111ec <__sfmoreglue>:
__sfmoreglue():
/home/lucas/Documents/summerwork2015/riscv-material/riscv-tools/riscv-gnu-toolchain/build/src/newlib-gcc/newlib/libc/stdio/findfp.c:84
   111ec:	fe010113          	addi	sp,sp,-32
   111f0:	01213023          	sd	s2,0(sp)
   111f4:	00058913          	mv	s2,a1
   111f8:	00913423          	sd	s1,8(sp)
/home/lucas/Documents/summerwork2015/riscv-material/riscv-tools/riscv-gnu-toolchain/build/src/newlib-gcc/newlib/libc/stdio/findfp.c:88
   111fc:	00090793          	mv	a5,s2
   11200:	0a800493          	li	s1,168
   11204:	029784b3          	mul	s1,a5,s1
/home/lucas/Documents/summerwork2015/riscv-material/riscv-tools/riscv-gnu-toolchain/build/src/newlib-gcc/newlib/libc/stdio/findfp.c:84
   11208:	00813823          	sd	s0,16(sp)
   1120c:	00113c23          	sd	ra,24(sp)
/home/lucas/Documents/summerwork2015/riscv-material/riscv-tools/riscv-gnu-toolchain/build/src/newlib-gcc/newlib/libc/stdio/findfp.c:88
   11210:	01848593          	addi	a1,s1,24
   11214:	a38ff0ef          	jal	1044c <_malloc_r>
   11218:	00050413          	mv	s0,a0
/home/lucas/Documents/summerwork2015/riscv-material/riscv-tools/riscv-gnu-toolchain/build/src/newlib-gcc/newlib/libc/stdio/findfp.c:89
   1121c:	02050063          	beqz	a0,1123c <__sfmoreglue+0x50>
/home/lucas/Documents/summerwork2015/riscv-material/riscv-tools/riscv-gnu-toolchain/build/src/newlib-gcc/newlib/libc/stdio/findfp.c:91
   11220:	01850513          	addi	a0,a0,24
/home/lucas/Documents/summerwork2015/riscv-material/riscv-tools/riscv-gnu-toolchain/build/src/newlib-gcc/newlib/libc/stdio/findfp.c:92
   11224:	00043023          	sd	zero,0(s0)
/home/lucas/Documents/summerwork2015/riscv-material/riscv-tools/riscv-gnu-toolchain/build/src/newlib-gcc/newlib/libc/stdio/findfp.c:93
   11228:	01242423          	sw	s2,8(s0)
/home/lucas/Documents/summerwork2015/riscv-material/riscv-tools/riscv-gnu-toolchain/build/src/newlib-gcc/newlib/libc/stdio/findfp.c:94
   1122c:	00a43823          	sd	a0,16(s0)
/home/lucas/Documents/summerwork2015/riscv-material/riscv-tools/riscv-gnu-toolchain/build/src/newlib-gcc/newlib/libc/stdio/findfp.c:95
   11230:	00048613          	mv	a2,s1
   11234:	00000593          	li	a1,0
   11238:	6d1000ef          	jal	12108 <memset>
/home/lucas/Documents/summerwork2015/riscv-material/riscv-tools/riscv-gnu-toolchain/build/src/newlib-gcc/newlib/libc/stdio/findfp.c:97
   1123c:	01813083          	ld	ra,24(sp)
   11240:	00040513          	mv	a0,s0
   11244:	00813483          	ld	s1,8(sp)
   11248:	01013403          	ld	s0,16(sp)
   1124c:	00013903          	ld	s2,0(sp)
   11250:	02010113          	addi	sp,sp,32
   11254:	00008067          	ret

0000000000011258 <__sfp>:
__sfp():
/home/lucas/Documents/summerwork2015/riscv-material/riscv-tools/riscv-gnu-toolchain/build/src/newlib-gcc/newlib/libc/stdio/findfp.c:106
   11258:	fd010113          	addi	sp,sp,-48
   1125c:	01213823          	sd	s2,16(sp)
/home/lucas/Documents/summerwork2015/riscv-material/riscv-tools/riscv-gnu-toolchain/build/src/newlib-gcc/newlib/libc/stdio/findfp.c:113
   11260:	8081b903          	ld	s2,-2040(gp) # 14e78 <_global_impure_ptr>
/home/lucas/Documents/summerwork2015/riscv-material/riscv-tools/riscv-gnu-toolchain/build/src/newlib-gcc/newlib/libc/stdio/findfp.c:106
   11264:	01313423          	sd	s3,8(sp)
   11268:	02113423          	sd	ra,40(sp)
/home/lucas/Documents/summerwork2015/riscv-material/riscv-tools/riscv-gnu-toolchain/build/src/newlib-gcc/newlib/libc/stdio/findfp.c:113
   1126c:	05092783          	lw	a5,80(s2)
/home/lucas/Documents/summerwork2015/riscv-material/riscv-tools/riscv-gnu-toolchain/build/src/newlib-gcc/newlib/libc/stdio/findfp.c:106
   11270:	02813023          	sd	s0,32(sp)
   11274:	00913c23          	sd	s1,24(sp)
   11278:	00050993          	mv	s3,a0
/home/lucas/Documents/summerwork2015/riscv-material/riscv-tools/riscv-gnu-toolchain/build/src/newlib-gcc/newlib/libc/stdio/findfp.c:113
   1127c:	00079663          	bnez	a5,11288 <__sfp+0x30>
__sinit():
   11280:	00090513          	mv	a0,s2
   11284:	dcdff0ef          	jal	11050 <__sinit.part.1>
__sfp():
/home/lucas/Documents/summerwork2015/riscv-material/riscv-tools/riscv-gnu-toolchain/build/src/newlib-gcc/newlib/libc/stdio/findfp.c:115
   11288:	52090913          	addi	s2,s2,1312
/home/lucas/Documents/summerwork2015/riscv-material/riscv-tools/riscv-gnu-toolchain/build/src/newlib-gcc/newlib/libc/stdio/findfp.c:117
   1128c:	fff00493          	li	s1,-1
   11290:	00892783          	lw	a5,8(s2)
   11294:	01093403          	ld	s0,16(s2)
   11298:	fff7879b          	addiw	a5,a5,-1
   1129c:	0007da63          	bgez	a5,112b0 <__sfp+0x58>
   112a0:	0840006f          	j	11324 <__sfp+0xcc>
/home/lucas/Documents/summerwork2015/riscv-material/riscv-tools/riscv-gnu-toolchain/build/src/newlib-gcc/newlib/libc/stdio/findfp.c:117 (discriminator 2)
   112a4:	fff7879b          	addiw	a5,a5,-1
   112a8:	0a840413          	addi	s0,s0,168
   112ac:	06978c63          	beq	a5,s1,11324 <__sfp+0xcc>
/home/lucas/Documents/summerwork2015/riscv-material/riscv-tools/riscv-gnu-toolchain/build/src/newlib-gcc/newlib/libc/stdio/findfp.c:118
   112b0:	01041703          	lh	a4,16(s0)
   112b4:	fe0718e3          	bnez	a4,112a4 <__sfp+0x4c>
/home/lucas/Documents/summerwork2015/riscv-material/riscv-tools/riscv-gnu-toolchain/build/src/newlib-gcc/newlib/libc/stdio/findfp.c:129
   112b8:	fff00793          	li	a5,-1
   112bc:	00f41923          	sh	a5,18(s0)
/home/lucas/Documents/summerwork2015/riscv-material/riscv-tools/riscv-gnu-toolchain/build/src/newlib-gcc/newlib/libc/stdio/findfp.c:130
   112c0:	00100793          	li	a5,1
   112c4:	00f41823          	sh	a5,16(s0)
/home/lucas/Documents/summerwork2015/riscv-material/riscv-tools/riscv-gnu-toolchain/build/src/newlib-gcc/newlib/libc/stdio/findfp.c:131
   112c8:	0a042223          	sw	zero,164(s0)
/home/lucas/Documents/summerwork2015/riscv-material/riscv-tools/riscv-gnu-toolchain/build/src/newlib-gcc/newlib/libc/stdio/findfp.c:137
   112cc:	00043023          	sd	zero,0(s0)
/home/lucas/Documents/summerwork2015/riscv-material/riscv-tools/riscv-gnu-toolchain/build/src/newlib-gcc/newlib/libc/stdio/findfp.c:138
   112d0:	00042623          	sw	zero,12(s0)
/home/lucas/Documents/summerwork2015/riscv-material/riscv-tools/riscv-gnu-toolchain/build/src/newlib-gcc/newlib/libc/stdio/findfp.c:139
   112d4:	00042423          	sw	zero,8(s0)
/home/lucas/Documents/summerwork2015/riscv-material/riscv-tools/riscv-gnu-toolchain/build/src/newlib-gcc/newlib/libc/stdio/findfp.c:140
   112d8:	00043c23          	sd	zero,24(s0)
/home/lucas/Documents/summerwork2015/riscv-material/riscv-tools/riscv-gnu-toolchain/build/src/newlib-gcc/newlib/libc/stdio/findfp.c:141
   112dc:	02042023          	sw	zero,32(s0)
/home/lucas/Documents/summerwork2015/riscv-material/riscv-tools/riscv-gnu-toolchain/build/src/newlib-gcc/newlib/libc/stdio/findfp.c:142
   112e0:	02042423          	sw	zero,40(s0)
/home/lucas/Documents/summerwork2015/riscv-material/riscv-tools/riscv-gnu-toolchain/build/src/newlib-gcc/newlib/libc/stdio/findfp.c:143
   112e4:	00800613          	li	a2,8
   112e8:	00000593          	li	a1,0
   112ec:	09c40513          	addi	a0,s0,156
   112f0:	619000ef          	jal	12108 <memset>
/home/lucas/Documents/summerwork2015/riscv-material/riscv-tools/riscv-gnu-toolchain/build/src/newlib-gcc/newlib/libc/stdio/findfp.c:145
   112f4:	04043c23          	sd	zero,88(s0)
/home/lucas/Documents/summerwork2015/riscv-material/riscv-tools/riscv-gnu-toolchain/build/src/newlib-gcc/newlib/libc/stdio/findfp.c:146
   112f8:	06042023          	sw	zero,96(s0)
/home/lucas/Documents/summerwork2015/riscv-material/riscv-tools/riscv-gnu-toolchain/build/src/newlib-gcc/newlib/libc/stdio/findfp.c:147
   112fc:	06043c23          	sd	zero,120(s0)
/home/lucas/Documents/summerwork2015/riscv-material/riscv-tools/riscv-gnu-toolchain/build/src/newlib-gcc/newlib/libc/stdio/findfp.c:148
   11300:	08042023          	sw	zero,128(s0)
/home/lucas/Documents/summerwork2015/riscv-material/riscv-tools/riscv-gnu-toolchain/build/src/newlib-gcc/newlib/libc/stdio/findfp.c:150
   11304:	00040513          	mv	a0,s0
/home/lucas/Documents/summerwork2015/riscv-material/riscv-tools/riscv-gnu-toolchain/build/src/newlib-gcc/newlib/libc/stdio/findfp.c:151
   11308:	02813083          	ld	ra,40(sp)
   1130c:	02013403          	ld	s0,32(sp)
   11310:	01813483          	ld	s1,24(sp)
   11314:	01013903          	ld	s2,16(sp)
   11318:	00813983          	ld	s3,8(sp)
   1131c:	03010113          	addi	sp,sp,48
   11320:	00008067          	ret
/home/lucas/Documents/summerwork2015/riscv-material/riscv-tools/riscv-gnu-toolchain/build/src/newlib-gcc/newlib/libc/stdio/findfp.c:120
   11324:	00093783          	ld	a5,0(s2)
   11328:	00078663          	beqz	a5,11334 <__sfp+0xdc>
   1132c:	00078913          	mv	s2,a5
/home/lucas/Documents/summerwork2015/riscv-material/riscv-tools/riscv-gnu-toolchain/build/src/newlib-gcc/newlib/libc/stdio/findfp.c:123
   11330:	f61ff06f          	j	11290 <__sfp+0x38>
/home/lucas/Documents/summerwork2015/riscv-material/riscv-tools/riscv-gnu-toolchain/build/src/newlib-gcc/newlib/libc/stdio/findfp.c:121 (discriminator 1)
   11334:	00400593          	li	a1,4
   11338:	00098513          	mv	a0,s3
   1133c:	eb1ff0ef          	jal	111ec <__sfmoreglue>
   11340:	00a93023          	sd	a0,0(s2)
/home/lucas/Documents/summerwork2015/riscv-material/riscv-tools/riscv-gnu-toolchain/build/src/newlib-gcc/newlib/libc/stdio/findfp.c:120
   11344:	00050663          	beqz	a0,11350 <__sfp+0xf8>
   11348:	00050913          	mv	s2,a0
   1134c:	f45ff06f          	j	11290 <__sfp+0x38>
/home/lucas/Documents/summerwork2015/riscv-material/riscv-tools/riscv-gnu-toolchain/build/src/newlib-gcc/newlib/libc/stdio/findfp.c:125
   11350:	00c00793          	li	a5,12
   11354:	00f9a023          	sw	a5,0(s3)
/home/lucas/Documents/summerwork2015/riscv-material/riscv-tools/riscv-gnu-toolchain/build/src/newlib-gcc/newlib/libc/stdio/findfp.c:126
   11358:	00000513          	li	a0,0
   1135c:	fadff06f          	j	11308 <__sfp+0xb0>

0000000000011360 <_cleanup>:
_cleanup_r():
/home/lucas/Documents/summerwork2015/riscv-material/riscv-tools/riscv-gnu-toolchain/build/src/newlib-gcc/newlib/libc/stdio/findfp.c:165
   11360:	8081b503          	ld	a0,-2040(gp) # 14e78 <_global_impure_ptr>
   11364:	000135b7          	lui	a1,0x13
   11368:	b0458593          	addi	a1,a1,-1276 # 12b04 <fclose>
   1136c:	1350006f          	j	11ca0 <_fwalk>

0000000000011370 <__sinit>:
__sinit():
/home/lucas/Documents/summerwork2015/riscv-material/riscv-tools/riscv-gnu-toolchain/build/src/newlib-gcc/newlib/libc/stdio/findfp.c:187
   11370:	05052783          	lw	a5,80(a0)
   11374:	00078463          	beqz	a5,1137c <__sinit+0xc>
   11378:	00008067          	ret
   1137c:	cd5ff06f          	j	11050 <__sinit.part.1>

0000000000011380 <__sfp_lock_acquire>:
__sfp_lock_acquire():
   11380:	00008067          	ret

0000000000011384 <__sfp_lock_release>:
__sfp_lock_release():
   11384:	00008067          	ret

0000000000011388 <__sinit_lock_acquire>:
__sinit_lock_acquire():
   11388:	00008067          	ret

000000000001138c <__sinit_lock_release>:
__sinit_lock_release():
/home/lucas/Documents/summerwork2015/riscv-material/riscv-tools/riscv-gnu-toolchain/build/src/newlib-gcc/newlib/libc/stdio/findfp.c:255
   1138c:	00008067          	ret

0000000000011390 <__fp_lock_all>:
__fp_lock_all():
/home/lucas/Documents/summerwork2015/riscv-material/riscv-tools/riscv-gnu-toolchain/build/src/newlib-gcc/newlib/libc/stdio/findfp.c:284
   11390:	8101b503          	ld	a0,-2032(gp) # 14e80 <_impure_ptr>
   11394:	000115b7          	lui	a1,0x11
   11398:	1e458593          	addi	a1,a1,484 # 111e4 <__fp_lock>
   1139c:	1050006f          	j	11ca0 <_fwalk>

00000000000113a0 <__fp_unlock_all>:
__fp_unlock_all():
/home/lucas/Documents/summerwork2015/riscv-material/riscv-tools/riscv-gnu-toolchain/build/src/newlib-gcc/newlib/libc/stdio/findfp.c:290
   113a0:	8101b503          	ld	a0,-2032(gp) # 14e80 <_impure_ptr>
   113a4:	000115b7          	lui	a1,0x11
   113a8:	03c58593          	addi	a1,a1,60 # 1103c <__fp_unlock>
   113ac:	0f50006f          	j	11ca0 <_fwalk>

00000000000113b0 <_malloc_trim_r>:
_malloc_trim_r():
/home/lucas/Documents/summerwork2015/riscv-material/riscv-tools/riscv-gnu-toolchain/build/src/newlib-gcc/newlib/libc/stdlib/mallocr.c:3304
   113b0:	fd010113          	addi	sp,sp,-48
   113b4:	01213823          	sd	s2,16(sp)
/home/lucas/Documents/summerwork2015/riscv-material/riscv-tools/riscv-gnu-toolchain/build/src/newlib-gcc/newlib/libc/stdlib/mallocr.c:3314
   113b8:	00014937          	lui	s2,0x14
   113bc:	66090913          	addi	s2,s2,1632 # 14660 <__malloc_av_>
/home/lucas/Documents/summerwork2015/riscv-material/riscv-tools/riscv-gnu-toolchain/build/src/newlib-gcc/newlib/libc/stdlib/mallocr.c:3304
   113c0:	02813023          	sd	s0,32(sp)
   113c4:	00913c23          	sd	s1,24(sp)
   113c8:	00058413          	mv	s0,a1
   113cc:	01313423          	sd	s3,8(sp)
   113d0:	02113423          	sd	ra,40(sp)
   113d4:	00050993          	mv	s3,a0
/home/lucas/Documents/summerwork2015/riscv-material/riscv-tools/riscv-gnu-toolchain/build/src/newlib-gcc/newlib/libc/stdlib/mallocr.c:3312
   113d8:	839ff0ef          	jal	10c10 <__malloc_lock>
/home/lucas/Documents/summerwork2015/riscv-material/riscv-tools/riscv-gnu-toolchain/build/src/newlib-gcc/newlib/libc/stdlib/mallocr.c:3314
   113dc:	01093703          	ld	a4,16(s2)
/home/lucas/Documents/summerwork2015/riscv-material/riscv-tools/riscv-gnu-toolchain/build/src/newlib-gcc/newlib/libc/stdlib/mallocr.c:3315
   113e0:	000017b7          	lui	a5,0x1
   113e4:	fdf78593          	addi	a1,a5,-33 # fdf <_ftext-0xf021>
/home/lucas/Documents/summerwork2015/riscv-material/riscv-tools/riscv-gnu-toolchain/build/src/newlib-gcc/newlib/libc/stdlib/mallocr.c:3314
   113e8:	00873483          	ld	s1,8(a4)
   113ec:	ffc4f493          	andi	s1,s1,-4
/home/lucas/Documents/summerwork2015/riscv-material/riscv-tools/riscv-gnu-toolchain/build/src/newlib-gcc/newlib/libc/stdlib/mallocr.c:3315
   113f0:	40848433          	sub	s0,s1,s0
   113f4:	00b40433          	add	s0,s0,a1
   113f8:	00c45413          	srli	s0,s0,0xc
   113fc:	fff40413          	addi	s0,s0,-1
   11400:	00c41413          	slli	s0,s0,0xc
/home/lucas/Documents/summerwork2015/riscv-material/riscv-tools/riscv-gnu-toolchain/build/src/newlib-gcc/newlib/libc/stdlib/mallocr.c:3317
   11404:	00f44c63          	blt	s0,a5,1141c <_malloc_trim_r+0x6c>
/home/lucas/Documents/summerwork2015/riscv-material/riscv-tools/riscv-gnu-toolchain/build/src/newlib-gcc/newlib/libc/stdlib/mallocr.c:3326
   11408:	00000513          	li	a0,0
   1140c:	6c1010ef          	jal	132cc <sbrk>
/home/lucas/Documents/summerwork2015/riscv-material/riscv-tools/riscv-gnu-toolchain/build/src/newlib-gcc/newlib/libc/stdlib/mallocr.c:3327
   11410:	01093783          	ld	a5,16(s2)
   11414:	009787b3          	add	a5,a5,s1
   11418:	02f50663          	beq	a0,a5,11444 <_malloc_trim_r+0x94>
/home/lucas/Documents/summerwork2015/riscv-material/riscv-tools/riscv-gnu-toolchain/build/src/newlib-gcc/newlib/libc/stdlib/mallocr.c:3319
   1141c:	00098513          	mv	a0,s3
   11420:	ff4ff0ef          	jal	10c14 <__malloc_unlock>
/home/lucas/Documents/summerwork2015/riscv-material/riscv-tools/riscv-gnu-toolchain/build/src/newlib-gcc/newlib/libc/stdlib/mallocr.c:3363
   11424:	02813083          	ld	ra,40(sp)
/home/lucas/Documents/summerwork2015/riscv-material/riscv-tools/riscv-gnu-toolchain/build/src/newlib-gcc/newlib/libc/stdlib/mallocr.c:3320
   11428:	00000513          	li	a0,0
/home/lucas/Documents/summerwork2015/riscv-material/riscv-tools/riscv-gnu-toolchain/build/src/newlib-gcc/newlib/libc/stdlib/mallocr.c:3363
   1142c:	02013403          	ld	s0,32(sp)
   11430:	01813483          	ld	s1,24(sp)
   11434:	01013903          	ld	s2,16(sp)
   11438:	00813983          	ld	s3,8(sp)
   1143c:	03010113          	addi	sp,sp,48
   11440:	00008067          	ret
/home/lucas/Documents/summerwork2015/riscv-material/riscv-tools/riscv-gnu-toolchain/build/src/newlib-gcc/newlib/libc/stdlib/mallocr.c:3335
   11444:	40800533          	neg	a0,s0
   11448:	685010ef          	jal	132cc <sbrk>
/home/lucas/Documents/summerwork2015/riscv-material/riscv-tools/riscv-gnu-toolchain/build/src/newlib-gcc/newlib/libc/stdlib/mallocr.c:3337
   1144c:	fff00793          	li	a5,-1
   11450:	04f50463          	beq	a0,a5,11498 <_malloc_trim_r+0xe8>
/home/lucas/Documents/summerwork2015/riscv-material/riscv-tools/riscv-gnu-toolchain/build/src/newlib-gcc/newlib/libc/stdlib/mallocr.c:3356
   11454:	8981a783          	lw	a5,-1896(gp) # 14f08 <__malloc_current_mallinfo>
/home/lucas/Documents/summerwork2015/riscv-material/riscv-tools/riscv-gnu-toolchain/build/src/newlib-gcc/newlib/libc/stdlib/mallocr.c:3355
   11458:	01093683          	ld	a3,16(s2)
   1145c:	408484b3          	sub	s1,s1,s0
   11460:	0014e493          	ori	s1,s1,1
/home/lucas/Documents/summerwork2015/riscv-material/riscv-tools/riscv-gnu-toolchain/build/src/newlib-gcc/newlib/libc/stdlib/mallocr.c:3356
   11464:	4087843b          	subw	s0,a5,s0
/home/lucas/Documents/summerwork2015/riscv-material/riscv-tools/riscv-gnu-toolchain/build/src/newlib-gcc/newlib/libc/stdlib/mallocr.c:3358
   11468:	00098513          	mv	a0,s3
/home/lucas/Documents/summerwork2015/riscv-material/riscv-tools/riscv-gnu-toolchain/build/src/newlib-gcc/newlib/libc/stdlib/mallocr.c:3355
   1146c:	0096b423          	sd	s1,8(a3)
/home/lucas/Documents/summerwork2015/riscv-material/riscv-tools/riscv-gnu-toolchain/build/src/newlib-gcc/newlib/libc/stdlib/mallocr.c:3356
   11470:	8881ac23          	sw	s0,-1896(gp) # 14f08 <__malloc_current_mallinfo>
/home/lucas/Documents/summerwork2015/riscv-material/riscv-tools/riscv-gnu-toolchain/build/src/newlib-gcc/newlib/libc/stdlib/mallocr.c:3358
   11474:	fa0ff0ef          	jal	10c14 <__malloc_unlock>
/home/lucas/Documents/summerwork2015/riscv-material/riscv-tools/riscv-gnu-toolchain/build/src/newlib-gcc/newlib/libc/stdlib/mallocr.c:3363
   11478:	02813083          	ld	ra,40(sp)
/home/lucas/Documents/summerwork2015/riscv-material/riscv-tools/riscv-gnu-toolchain/build/src/newlib-gcc/newlib/libc/stdlib/mallocr.c:3359
   1147c:	00100513          	li	a0,1
/home/lucas/Documents/summerwork2015/riscv-material/riscv-tools/riscv-gnu-toolchain/build/src/newlib-gcc/newlib/libc/stdlib/mallocr.c:3363
   11480:	02013403          	ld	s0,32(sp)
   11484:	01813483          	ld	s1,24(sp)
   11488:	01013903          	ld	s2,16(sp)
   1148c:	00813983          	ld	s3,8(sp)
   11490:	03010113          	addi	sp,sp,48
   11494:	00008067          	ret
/home/lucas/Documents/summerwork2015/riscv-material/riscv-tools/riscv-gnu-toolchain/build/src/newlib-gcc/newlib/libc/stdlib/mallocr.c:3340
   11498:	00000513          	li	a0,0
   1149c:	631010ef          	jal	132cc <sbrk>
/home/lucas/Documents/summerwork2015/riscv-material/riscv-tools/riscv-gnu-toolchain/build/src/newlib-gcc/newlib/libc/stdlib/mallocr.c:3341
   114a0:	01093703          	ld	a4,16(s2)
/home/lucas/Documents/summerwork2015/riscv-material/riscv-tools/riscv-gnu-toolchain/build/src/newlib-gcc/newlib/libc/stdlib/mallocr.c:3342
   114a4:	01f00693          	li	a3,31
/home/lucas/Documents/summerwork2015/riscv-material/riscv-tools/riscv-gnu-toolchain/build/src/newlib-gcc/newlib/libc/stdlib/mallocr.c:3341
   114a8:	40e507b3          	sub	a5,a0,a4
/home/lucas/Documents/summerwork2015/riscv-material/riscv-tools/riscv-gnu-toolchain/build/src/newlib-gcc/newlib/libc/stdlib/mallocr.c:3342
   114ac:	f6f6d8e3          	ble	a5,a3,1141c <_malloc_trim_r+0x6c>
/home/lucas/Documents/summerwork2015/riscv-material/riscv-tools/riscv-gnu-toolchain/build/src/newlib-gcc/newlib/libc/stdlib/mallocr.c:3344
   114b0:	8181b683          	ld	a3,-2024(gp) # 14e88 <__malloc_sbrk_base>
/home/lucas/Documents/summerwork2015/riscv-material/riscv-tools/riscv-gnu-toolchain/build/src/newlib-gcc/newlib/libc/stdlib/mallocr.c:3345
   114b4:	0017e793          	ori	a5,a5,1
   114b8:	00f73423          	sd	a5,8(a4)
/home/lucas/Documents/summerwork2015/riscv-material/riscv-tools/riscv-gnu-toolchain/build/src/newlib-gcc/newlib/libc/stdlib/mallocr.c:3344
   114bc:	40d50533          	sub	a0,a0,a3
   114c0:	88a1ac23          	sw	a0,-1896(gp) # 14f08 <__malloc_current_mallinfo>
   114c4:	f59ff06f          	j	1141c <_malloc_trim_r+0x6c>

00000000000114c8 <_free_r>:
_free_r():
/home/lucas/Documents/summerwork2015/riscv-material/riscv-tools/riscv-gnu-toolchain/build/src/newlib-gcc/newlib/libc/stdlib/mallocr.c:2639
   114c8:	10058263          	beqz	a1,115cc <_free_r+0x104>
/home/lucas/Documents/summerwork2015/riscv-material/riscv-tools/riscv-gnu-toolchain/build/src/newlib-gcc/newlib/libc/stdlib/mallocr.c:2621
   114cc:	fe010113          	addi	sp,sp,-32
   114d0:	00813823          	sd	s0,16(sp)
   114d4:	00058413          	mv	s0,a1
   114d8:	00913423          	sd	s1,8(sp)
   114dc:	00113c23          	sd	ra,24(sp)
   114e0:	00050493          	mv	s1,a0
/home/lucas/Documents/summerwork2015/riscv-material/riscv-tools/riscv-gnu-toolchain/build/src/newlib-gcc/newlib/libc/stdlib/mallocr.c:2642
   114e4:	f2cff0ef          	jal	10c10 <__malloc_lock>
/home/lucas/Documents/summerwork2015/riscv-material/riscv-tools/riscv-gnu-toolchain/build/src/newlib-gcc/newlib/libc/stdlib/mallocr.c:2645
   114e8:	ff843503          	ld	a0,-8(s0)
/home/lucas/Documents/summerwork2015/riscv-material/riscv-tools/riscv-gnu-toolchain/build/src/newlib-gcc/newlib/libc/stdlib/mallocr.c:2644
   114ec:	ff040613          	addi	a2,s0,-16
/home/lucas/Documents/summerwork2015/riscv-material/riscv-tools/riscv-gnu-toolchain/build/src/newlib-gcc/newlib/libc/stdlib/mallocr.c:2662
   114f0:	000145b7          	lui	a1,0x14
/home/lucas/Documents/summerwork2015/riscv-material/riscv-tools/riscv-gnu-toolchain/build/src/newlib-gcc/newlib/libc/stdlib/mallocr.c:2658
   114f4:	ffe57793          	andi	a5,a0,-2
/home/lucas/Documents/summerwork2015/riscv-material/riscv-tools/riscv-gnu-toolchain/build/src/newlib-gcc/newlib/libc/stdlib/mallocr.c:2659
   114f8:	00f606b3          	add	a3,a2,a5
/home/lucas/Documents/summerwork2015/riscv-material/riscv-tools/riscv-gnu-toolchain/build/src/newlib-gcc/newlib/libc/stdlib/mallocr.c:2662
   114fc:	66058593          	addi	a1,a1,1632 # 14660 <__malloc_av_>
/home/lucas/Documents/summerwork2015/riscv-material/riscv-tools/riscv-gnu-toolchain/build/src/newlib-gcc/newlib/libc/stdlib/mallocr.c:2660
   11500:	0086b703          	ld	a4,8(a3)
/home/lucas/Documents/summerwork2015/riscv-material/riscv-tools/riscv-gnu-toolchain/build/src/newlib-gcc/newlib/libc/stdlib/mallocr.c:2662
   11504:	0105b803          	ld	a6,16(a1)
/home/lucas/Documents/summerwork2015/riscv-material/riscv-tools/riscv-gnu-toolchain/build/src/newlib-gcc/newlib/libc/stdlib/mallocr.c:2666
   11508:	00157513          	andi	a0,a0,1
/home/lucas/Documents/summerwork2015/riscv-material/riscv-tools/riscv-gnu-toolchain/build/src/newlib-gcc/newlib/libc/stdlib/mallocr.c:2660
   1150c:	ffc77713          	andi	a4,a4,-4
/home/lucas/Documents/summerwork2015/riscv-material/riscv-tools/riscv-gnu-toolchain/build/src/newlib-gcc/newlib/libc/stdlib/mallocr.c:2662
   11510:	17068463          	beq	a3,a6,11678 <_free_r+0x1b0>
/home/lucas/Documents/summerwork2015/riscv-material/riscv-tools/riscv-gnu-toolchain/build/src/newlib-gcc/newlib/libc/stdlib/mallocr.c:2682
   11514:	00e6b423          	sd	a4,8(a3)
/home/lucas/Documents/summerwork2015/riscv-material/riscv-tools/riscv-gnu-toolchain/build/src/newlib-gcc/newlib/libc/stdlib/mallocr.c:2686
   11518:	02051663          	bnez	a0,11544 <_free_r+0x7c>
/home/lucas/Documents/summerwork2015/riscv-material/riscv-tools/riscv-gnu-toolchain/build/src/newlib-gcc/newlib/libc/stdlib/mallocr.c:2688
   1151c:	ff043503          	ld	a0,-16(s0)
/home/lucas/Documents/summerwork2015/riscv-material/riscv-tools/riscv-gnu-toolchain/build/src/newlib-gcc/newlib/libc/stdlib/mallocr.c:2689
   11520:	40a60633          	sub	a2,a2,a0
/home/lucas/Documents/summerwork2015/riscv-material/riscv-tools/riscv-gnu-toolchain/build/src/newlib-gcc/newlib/libc/stdlib/mallocr.c:2692
   11524:	01063803          	ld	a6,16(a2) # 2010 <_ftext-0xdff0>
/home/lucas/Documents/summerwork2015/riscv-material/riscv-tools/riscv-gnu-toolchain/build/src/newlib-gcc/newlib/libc/stdlib/mallocr.c:2690
   11528:	00a787b3          	add	a5,a5,a0
/home/lucas/Documents/summerwork2015/riscv-material/riscv-tools/riscv-gnu-toolchain/build/src/newlib-gcc/newlib/libc/stdlib/mallocr.c:2692
   1152c:	00014537          	lui	a0,0x14
   11530:	67050513          	addi	a0,a0,1648 # 14670 <__malloc_av_+0x10>
   11534:	18a80663          	beq	a6,a0,116c0 <_free_r+0x1f8>
/home/lucas/Documents/summerwork2015/riscv-material/riscv-tools/riscv-gnu-toolchain/build/src/newlib-gcc/newlib/libc/stdlib/mallocr.c:2695
   11538:	01863503          	ld	a0,24(a2)
   1153c:	00a83c23          	sd	a0,24(a6)
   11540:	01053823          	sd	a6,16(a0)
/home/lucas/Documents/summerwork2015/riscv-material/riscv-tools/riscv-gnu-toolchain/build/src/newlib-gcc/newlib/libc/stdlib/mallocr.c:2698
   11544:	00e68533          	add	a0,a3,a4
   11548:	00853503          	ld	a0,8(a0)
   1154c:	00157513          	andi	a0,a0,1
   11550:	0e050a63          	beqz	a0,11644 <_free_r+0x17c>
/home/lucas/Documents/summerwork2015/riscv-material/riscv-tools/riscv-gnu-toolchain/build/src/newlib-gcc/newlib/libc/stdlib/mallocr.c:2712
   11554:	0017e693          	ori	a3,a5,1
/home/lucas/Documents/summerwork2015/riscv-material/riscv-tools/riscv-gnu-toolchain/build/src/newlib-gcc/newlib/libc/stdlib/mallocr.c:2713
   11558:	00f60733          	add	a4,a2,a5
/home/lucas/Documents/summerwork2015/riscv-material/riscv-tools/riscv-gnu-toolchain/build/src/newlib-gcc/newlib/libc/stdlib/mallocr.c:2712
   1155c:	00d63423          	sd	a3,8(a2)
/home/lucas/Documents/summerwork2015/riscv-material/riscv-tools/riscv-gnu-toolchain/build/src/newlib-gcc/newlib/libc/stdlib/mallocr.c:2713
   11560:	00f73023          	sd	a5,0(a4)
/home/lucas/Documents/summerwork2015/riscv-material/riscv-tools/riscv-gnu-toolchain/build/src/newlib-gcc/newlib/libc/stdlib/mallocr.c:2715
   11564:	1ff00713          	li	a4,511
   11568:	06f76463          	bltu	a4,a5,115d0 <_free_r+0x108>
/home/lucas/Documents/summerwork2015/riscv-material/riscv-tools/riscv-gnu-toolchain/build/src/newlib-gcc/newlib/libc/stdlib/mallocr.c:2715 (discriminator 1)
   1156c:	0037d793          	srli	a5,a5,0x3
   11570:	0007879b          	sext.w	a5,a5
   11574:	0017871b          	addiw	a4,a5,1
   11578:	0017171b          	slliw	a4,a4,0x1
   1157c:	00371713          	slli	a4,a4,0x3
   11580:	0085b683          	ld	a3,8(a1)
   11584:	00e58733          	add	a4,a1,a4
   11588:	00073803          	ld	a6,0(a4)
   1158c:	4027d79b          	sraiw	a5,a5,0x2
   11590:	00100513          	li	a0,1
   11594:	00f517b3          	sll	a5,a0,a5
   11598:	00d7e7b3          	or	a5,a5,a3
   1159c:	ff070693          	addi	a3,a4,-16
   115a0:	00d63c23          	sd	a3,24(a2)
   115a4:	01063823          	sd	a6,16(a2)
   115a8:	00f5b423          	sd	a5,8(a1)
   115ac:	00c73023          	sd	a2,0(a4)
   115b0:	00c83c23          	sd	a2,24(a6)
/home/lucas/Documents/summerwork2015/riscv-material/riscv-tools/riscv-gnu-toolchain/build/src/newlib-gcc/newlib/libc/stdlib/mallocr.c:2678
   115b4:	00048513          	mv	a0,s1
/home/lucas/Documents/summerwork2015/riscv-material/riscv-tools/riscv-gnu-toolchain/build/src/newlib-gcc/newlib/libc/stdlib/mallocr.c:2720
   115b8:	01813083          	ld	ra,24(sp)
   115bc:	01013403          	ld	s0,16(sp)
   115c0:	00813483          	ld	s1,8(sp)
   115c4:	02010113          	addi	sp,sp,32
/home/lucas/Documents/summerwork2015/riscv-material/riscv-tools/riscv-gnu-toolchain/build/src/newlib-gcc/newlib/libc/stdlib/mallocr.c:2678
   115c8:	e4cff06f          	j	10c14 <__malloc_unlock>
   115cc:	00008067          	ret
/home/lucas/Documents/summerwork2015/riscv-material/riscv-tools/riscv-gnu-toolchain/build/src/newlib-gcc/newlib/libc/stdlib/mallocr.c:2715 (discriminator 2)
   115d0:	0097d713          	srli	a4,a5,0x9
   115d4:	00400693          	li	a3,4
   115d8:	12e6e063          	bltu	a3,a4,116f8 <_free_r+0x230>
/home/lucas/Documents/summerwork2015/riscv-material/riscv-tools/riscv-gnu-toolchain/build/src/newlib-gcc/newlib/libc/stdlib/mallocr.c:2715 (discriminator 6)
   115dc:	0067d713          	srli	a4,a5,0x6
   115e0:	0007071b          	sext.w	a4,a4
   115e4:	0397051b          	addiw	a0,a4,57
   115e8:	0387069b          	addiw	a3,a4,56
   115ec:	0015151b          	slliw	a0,a0,0x1
/home/lucas/Documents/summerwork2015/riscv-material/riscv-tools/riscv-gnu-toolchain/build/src/newlib-gcc/newlib/libc/stdlib/mallocr.c:2715 (discriminator 26)
   115f0:	00351513          	slli	a0,a0,0x3
   115f4:	00a58533          	add	a0,a1,a0
   115f8:	00053703          	ld	a4,0(a0)
   115fc:	ff050513          	addi	a0,a0,-16
   11600:	10e50a63          	beq	a0,a4,11714 <_free_r+0x24c>
/home/lucas/Documents/summerwork2015/riscv-material/riscv-tools/riscv-gnu-toolchain/build/src/newlib-gcc/newlib/libc/stdlib/mallocr.c:2715 (discriminator 30)
   11604:	00873683          	ld	a3,8(a4)
   11608:	ffc6f693          	andi	a3,a3,-4
   1160c:	00d7f663          	bleu	a3,a5,11618 <_free_r+0x150>
/home/lucas/Documents/summerwork2015/riscv-material/riscv-tools/riscv-gnu-toolchain/build/src/newlib-gcc/newlib/libc/stdlib/mallocr.c:2715 (discriminator 32)
   11610:	01073703          	ld	a4,16(a4)
   11614:	fee518e3          	bne	a0,a4,11604 <_free_r+0x13c>
/home/lucas/Documents/summerwork2015/riscv-material/riscv-tools/riscv-gnu-toolchain/build/src/newlib-gcc/newlib/libc/stdlib/mallocr.c:2715 (discriminator 33)
   11618:	01873503          	ld	a0,24(a4)
/home/lucas/Documents/summerwork2015/riscv-material/riscv-tools/riscv-gnu-toolchain/build/src/newlib-gcc/newlib/libc/stdlib/mallocr.c:2715 (discriminator 34)
   1161c:	00a63c23          	sd	a0,24(a2)
   11620:	00e63823          	sd	a4,16(a2)
/home/lucas/Documents/summerwork2015/riscv-material/riscv-tools/riscv-gnu-toolchain/build/src/newlib-gcc/newlib/libc/stdlib/mallocr.c:2720
   11624:	01813083          	ld	ra,24(sp)
/home/lucas/Documents/summerwork2015/riscv-material/riscv-tools/riscv-gnu-toolchain/build/src/newlib-gcc/newlib/libc/stdlib/mallocr.c:2715
   11628:	00c53823          	sd	a2,16(a0)
/home/lucas/Documents/summerwork2015/riscv-material/riscv-tools/riscv-gnu-toolchain/build/src/newlib-gcc/newlib/libc/stdlib/mallocr.c:2720
   1162c:	01013403          	ld	s0,16(sp)
/home/lucas/Documents/summerwork2015/riscv-material/riscv-tools/riscv-gnu-toolchain/build/src/newlib-gcc/newlib/libc/stdlib/mallocr.c:2678
   11630:	00048513          	mv	a0,s1
/home/lucas/Documents/summerwork2015/riscv-material/riscv-tools/riscv-gnu-toolchain/build/src/newlib-gcc/newlib/libc/stdlib/mallocr.c:2720
   11634:	00813483          	ld	s1,8(sp)
/home/lucas/Documents/summerwork2015/riscv-material/riscv-tools/riscv-gnu-toolchain/build/src/newlib-gcc/newlib/libc/stdlib/mallocr.c:2715
   11638:	00c73c23          	sd	a2,24(a4)
/home/lucas/Documents/summerwork2015/riscv-material/riscv-tools/riscv-gnu-toolchain/build/src/newlib-gcc/newlib/libc/stdlib/mallocr.c:2720
   1163c:	02010113          	addi	sp,sp,32
/home/lucas/Documents/summerwork2015/riscv-material/riscv-tools/riscv-gnu-toolchain/build/src/newlib-gcc/newlib/libc/stdlib/mallocr.c:2678
   11640:	dd4ff06f          	j	10c14 <__malloc_unlock>
/home/lucas/Documents/summerwork2015/riscv-material/riscv-tools/riscv-gnu-toolchain/build/src/newlib-gcc/newlib/libc/stdlib/mallocr.c:2702
   11644:	0106b503          	ld	a0,16(a3)
/home/lucas/Documents/summerwork2015/riscv-material/riscv-tools/riscv-gnu-toolchain/build/src/newlib-gcc/newlib/libc/stdlib/mallocr.c:2700
   11648:	00e787b3          	add	a5,a5,a4
/home/lucas/Documents/summerwork2015/riscv-material/riscv-tools/riscv-gnu-toolchain/build/src/newlib-gcc/newlib/libc/stdlib/mallocr.c:2702
   1164c:	00014737          	lui	a4,0x14
   11650:	67070713          	addi	a4,a4,1648 # 14670 <__malloc_av_+0x10>
   11654:	0ee50063          	beq	a0,a4,11734 <_free_r+0x26c>
/home/lucas/Documents/summerwork2015/riscv-material/riscv-tools/riscv-gnu-toolchain/build/src/newlib-gcc/newlib/libc/stdlib/mallocr.c:2708
   11658:	0186b803          	ld	a6,24(a3)
/home/lucas/Documents/summerwork2015/riscv-material/riscv-tools/riscv-gnu-toolchain/build/src/newlib-gcc/newlib/libc/stdlib/mallocr.c:2713
   1165c:	00f60733          	add	a4,a2,a5
/home/lucas/Documents/summerwork2015/riscv-material/riscv-tools/riscv-gnu-toolchain/build/src/newlib-gcc/newlib/libc/stdlib/mallocr.c:2712
   11660:	0017e693          	ori	a3,a5,1
/home/lucas/Documents/summerwork2015/riscv-material/riscv-tools/riscv-gnu-toolchain/build/src/newlib-gcc/newlib/libc/stdlib/mallocr.c:2708
   11664:	01053c23          	sd	a6,24(a0)
   11668:	00a83823          	sd	a0,16(a6)
/home/lucas/Documents/summerwork2015/riscv-material/riscv-tools/riscv-gnu-toolchain/build/src/newlib-gcc/newlib/libc/stdlib/mallocr.c:2712
   1166c:	00d63423          	sd	a3,8(a2)
/home/lucas/Documents/summerwork2015/riscv-material/riscv-tools/riscv-gnu-toolchain/build/src/newlib-gcc/newlib/libc/stdlib/mallocr.c:2713
   11670:	00f73023          	sd	a5,0(a4)
   11674:	ef1ff06f          	j	11564 <_free_r+0x9c>
/home/lucas/Documents/summerwork2015/riscv-material/riscv-tools/riscv-gnu-toolchain/build/src/newlib-gcc/newlib/libc/stdlib/mallocr.c:2664
   11678:	00e787b3          	add	a5,a5,a4
/home/lucas/Documents/summerwork2015/riscv-material/riscv-tools/riscv-gnu-toolchain/build/src/newlib-gcc/newlib/libc/stdlib/mallocr.c:2666
   1167c:	02051063          	bnez	a0,1169c <_free_r+0x1d4>
/home/lucas/Documents/summerwork2015/riscv-material/riscv-tools/riscv-gnu-toolchain/build/src/newlib-gcc/newlib/libc/stdlib/mallocr.c:2668
   11680:	ff043503          	ld	a0,-16(s0)
/home/lucas/Documents/summerwork2015/riscv-material/riscv-tools/riscv-gnu-toolchain/build/src/newlib-gcc/newlib/libc/stdlib/mallocr.c:2669
   11684:	40a60633          	sub	a2,a2,a0
/home/lucas/Documents/summerwork2015/riscv-material/riscv-tools/riscv-gnu-toolchain/build/src/newlib-gcc/newlib/libc/stdlib/mallocr.c:2671
   11688:	01863703          	ld	a4,24(a2)
   1168c:	01063683          	ld	a3,16(a2)
/home/lucas/Documents/summerwork2015/riscv-material/riscv-tools/riscv-gnu-toolchain/build/src/newlib-gcc/newlib/libc/stdlib/mallocr.c:2670
   11690:	00a787b3          	add	a5,a5,a0
/home/lucas/Documents/summerwork2015/riscv-material/riscv-tools/riscv-gnu-toolchain/build/src/newlib-gcc/newlib/libc/stdlib/mallocr.c:2671
   11694:	00e6bc23          	sd	a4,24(a3)
   11698:	00d73823          	sd	a3,16(a4)
/home/lucas/Documents/summerwork2015/riscv-material/riscv-tools/riscv-gnu-toolchain/build/src/newlib-gcc/newlib/libc/stdlib/mallocr.c:2676
   1169c:	8201b703          	ld	a4,-2016(gp) # 14e90 <__malloc_trim_threshold>
/home/lucas/Documents/summerwork2015/riscv-material/riscv-tools/riscv-gnu-toolchain/build/src/newlib-gcc/newlib/libc/stdlib/mallocr.c:2674
   116a0:	0017e693          	ori	a3,a5,1
   116a4:	00d63423          	sd	a3,8(a2)
/home/lucas/Documents/summerwork2015/riscv-material/riscv-tools/riscv-gnu-toolchain/build/src/newlib-gcc/newlib/libc/stdlib/mallocr.c:2675
   116a8:	00c5b823          	sd	a2,16(a1)
/home/lucas/Documents/summerwork2015/riscv-material/riscv-tools/riscv-gnu-toolchain/build/src/newlib-gcc/newlib/libc/stdlib/mallocr.c:2676
   116ac:	f0e7e4e3          	bltu	a5,a4,115b4 <_free_r+0xec>
/home/lucas/Documents/summerwork2015/riscv-material/riscv-tools/riscv-gnu-toolchain/build/src/newlib-gcc/newlib/libc/stdlib/mallocr.c:2677
   116b0:	8501b583          	ld	a1,-1968(gp) # 14ec0 <__malloc_top_pad>
   116b4:	00048513          	mv	a0,s1
   116b8:	cf9ff0ef          	jal	113b0 <_malloc_trim_r>
   116bc:	ef9ff06f          	j	115b4 <_free_r+0xec>
/home/lucas/Documents/summerwork2015/riscv-material/riscv-tools/riscv-gnu-toolchain/build/src/newlib-gcc/newlib/libc/stdlib/mallocr.c:2698
   116c0:	00e685b3          	add	a1,a3,a4
   116c4:	0085b583          	ld	a1,8(a1)
   116c8:	0015f593          	andi	a1,a1,1
   116cc:	0e059a63          	bnez	a1,117c0 <_free_r+0x2f8>
   116d0:	0106b583          	ld	a1,16(a3)
/home/lucas/Documents/summerwork2015/riscv-material/riscv-tools/riscv-gnu-toolchain/build/src/newlib-gcc/newlib/libc/stdlib/mallocr.c:2708
   116d4:	0186b683          	ld	a3,24(a3)
/home/lucas/Documents/summerwork2015/riscv-material/riscv-tools/riscv-gnu-toolchain/build/src/newlib-gcc/newlib/libc/stdlib/mallocr.c:2700
   116d8:	00f707b3          	add	a5,a4,a5
/home/lucas/Documents/summerwork2015/riscv-material/riscv-tools/riscv-gnu-toolchain/build/src/newlib-gcc/newlib/libc/stdlib/mallocr.c:2712
   116dc:	0017e513          	ori	a0,a5,1
/home/lucas/Documents/summerwork2015/riscv-material/riscv-tools/riscv-gnu-toolchain/build/src/newlib-gcc/newlib/libc/stdlib/mallocr.c:2713
   116e0:	00f60733          	add	a4,a2,a5
/home/lucas/Documents/summerwork2015/riscv-material/riscv-tools/riscv-gnu-toolchain/build/src/newlib-gcc/newlib/libc/stdlib/mallocr.c:2708
   116e4:	00d5bc23          	sd	a3,24(a1)
   116e8:	00b6b823          	sd	a1,16(a3)
/home/lucas/Documents/summerwork2015/riscv-material/riscv-tools/riscv-gnu-toolchain/build/src/newlib-gcc/newlib/libc/stdlib/mallocr.c:2712
   116ec:	00a63423          	sd	a0,8(a2)
/home/lucas/Documents/summerwork2015/riscv-material/riscv-tools/riscv-gnu-toolchain/build/src/newlib-gcc/newlib/libc/stdlib/mallocr.c:2713
   116f0:	00f73023          	sd	a5,0(a4)
   116f4:	ec1ff06f          	j	115b4 <_free_r+0xec>
/home/lucas/Documents/summerwork2015/riscv-material/riscv-tools/riscv-gnu-toolchain/build/src/newlib-gcc/newlib/libc/stdlib/mallocr.c:2715 (discriminator 7)
   116f8:	01400693          	li	a3,20
   116fc:	04e6ee63          	bltu	a3,a4,11758 <_free_r+0x290>
/home/lucas/Documents/summerwork2015/riscv-material/riscv-tools/riscv-gnu-toolchain/build/src/newlib-gcc/newlib/libc/stdlib/mallocr.c:2715 (discriminator 9)
   11700:	0007071b          	sext.w	a4,a4
   11704:	05c7051b          	addiw	a0,a4,92
   11708:	05b7069b          	addiw	a3,a4,91
   1170c:	0015151b          	slliw	a0,a0,0x1
   11710:	ee1ff06f          	j	115f0 <_free_r+0x128>
/home/lucas/Documents/summerwork2015/riscv-material/riscv-tools/riscv-gnu-toolchain/build/src/newlib-gcc/newlib/libc/stdlib/mallocr.c:2715 (discriminator 27)
   11714:	0085b783          	ld	a5,8(a1)
   11718:	4026d71b          	sraiw	a4,a3,0x2
   1171c:	00100693          	li	a3,1
   11720:	00e69733          	sll	a4,a3,a4
   11724:	00f76733          	or	a4,a4,a5
   11728:	00e5b423          	sd	a4,8(a1)
   1172c:	00050713          	mv	a4,a0
   11730:	eedff06f          	j	1161c <_free_r+0x154>
/home/lucas/Documents/summerwork2015/riscv-material/riscv-tools/riscv-gnu-toolchain/build/src/newlib-gcc/newlib/libc/stdlib/mallocr.c:2712
   11734:	0017e693          	ori	a3,a5,1
/home/lucas/Documents/summerwork2015/riscv-material/riscv-tools/riscv-gnu-toolchain/build/src/newlib-gcc/newlib/libc/stdlib/mallocr.c:2713
   11738:	00f60733          	add	a4,a2,a5
/home/lucas/Documents/summerwork2015/riscv-material/riscv-tools/riscv-gnu-toolchain/build/src/newlib-gcc/newlib/libc/stdlib/mallocr.c:2705
   1173c:	02c5b423          	sd	a2,40(a1)
   11740:	02c5b023          	sd	a2,32(a1)
   11744:	00a63c23          	sd	a0,24(a2)
   11748:	00a63823          	sd	a0,16(a2)
/home/lucas/Documents/summerwork2015/riscv-material/riscv-tools/riscv-gnu-toolchain/build/src/newlib-gcc/newlib/libc/stdlib/mallocr.c:2712
   1174c:	00d63423          	sd	a3,8(a2)
/home/lucas/Documents/summerwork2015/riscv-material/riscv-tools/riscv-gnu-toolchain/build/src/newlib-gcc/newlib/libc/stdlib/mallocr.c:2713
   11750:	00f73023          	sd	a5,0(a4)
   11754:	e61ff06f          	j	115b4 <_free_r+0xec>
/home/lucas/Documents/summerwork2015/riscv-material/riscv-tools/riscv-gnu-toolchain/build/src/newlib-gcc/newlib/libc/stdlib/mallocr.c:2715 (discriminator 10)
   11758:	05400693          	li	a3,84
   1175c:	00e6ee63          	bltu	a3,a4,11778 <_free_r+0x2b0>
/home/lucas/Documents/summerwork2015/riscv-material/riscv-tools/riscv-gnu-toolchain/build/src/newlib-gcc/newlib/libc/stdlib/mallocr.c:2715 (discriminator 12)
   11760:	00c7d713          	srli	a4,a5,0xc
   11764:	0007071b          	sext.w	a4,a4
   11768:	06f7051b          	addiw	a0,a4,111
   1176c:	06e7069b          	addiw	a3,a4,110
   11770:	0015151b          	slliw	a0,a0,0x1
   11774:	e7dff06f          	j	115f0 <_free_r+0x128>
/home/lucas/Documents/summerwork2015/riscv-material/riscv-tools/riscv-gnu-toolchain/build/src/newlib-gcc/newlib/libc/stdlib/mallocr.c:2715 (discriminator 13)
   11778:	15400693          	li	a3,340
   1177c:	00e6ee63          	bltu	a3,a4,11798 <_free_r+0x2d0>
/home/lucas/Documents/summerwork2015/riscv-material/riscv-tools/riscv-gnu-toolchain/build/src/newlib-gcc/newlib/libc/stdlib/mallocr.c:2715 (discriminator 15)
   11780:	00f7d713          	srli	a4,a5,0xf
   11784:	0007071b          	sext.w	a4,a4
   11788:	0787051b          	addiw	a0,a4,120
   1178c:	0777069b          	addiw	a3,a4,119
   11790:	0015151b          	slliw	a0,a0,0x1
   11794:	e5dff06f          	j	115f0 <_free_r+0x128>
/home/lucas/Documents/summerwork2015/riscv-material/riscv-tools/riscv-gnu-toolchain/build/src/newlib-gcc/newlib/libc/stdlib/mallocr.c:2715 (discriminator 16)
   11798:	55400813          	li	a6,1364
   1179c:	0fe00513          	li	a0,254
   117a0:	07e00693          	li	a3,126
   117a4:	e4e866e3          	bltu	a6,a4,115f0 <_free_r+0x128>
/home/lucas/Documents/summerwork2015/riscv-material/riscv-tools/riscv-gnu-toolchain/build/src/newlib-gcc/newlib/libc/stdlib/mallocr.c:2715 (discriminator 18)
   117a8:	0127d713          	srli	a4,a5,0x12
   117ac:	0007071b          	sext.w	a4,a4
   117b0:	07d7051b          	addiw	a0,a4,125
   117b4:	07c7069b          	addiw	a3,a4,124
   117b8:	0015151b          	slliw	a0,a0,0x1
   117bc:	e35ff06f          	j	115f0 <_free_r+0x128>
/home/lucas/Documents/summerwork2015/riscv-material/riscv-tools/riscv-gnu-toolchain/build/src/newlib-gcc/newlib/libc/stdlib/mallocr.c:2712
   117c0:	0017e693          	ori	a3,a5,1
/home/lucas/Documents/summerwork2015/riscv-material/riscv-tools/riscv-gnu-toolchain/build/src/newlib-gcc/newlib/libc/stdlib/mallocr.c:2713
   117c4:	00f60733          	add	a4,a2,a5
/home/lucas/Documents/summerwork2015/riscv-material/riscv-tools/riscv-gnu-toolchain/build/src/newlib-gcc/newlib/libc/stdlib/mallocr.c:2712
   117c8:	00d63423          	sd	a3,8(a2)
/home/lucas/Documents/summerwork2015/riscv-material/riscv-tools/riscv-gnu-toolchain/build/src/newlib-gcc/newlib/libc/stdlib/mallocr.c:2713
   117cc:	00f73023          	sd	a5,0(a4)
   117d0:	de5ff06f          	j	115b4 <_free_r+0xec>

00000000000117d4 <__sfvwrite_r>:
__sfvwrite_r():
/home/lucas/Documents/summerwork2015/riscv-material/riscv-tools/riscv-gnu-toolchain/build/src/newlib-gcc/newlib/libc/stdio/fvwrite.c:59
   117d4:	00c62783          	lw	a5,12(a2)
   117d8:	1a078c63          	beqz	a5,11990 <__sfvwrite_r+0x1bc>
/home/lucas/Documents/summerwork2015/riscv-material/riscv-tools/riscv-gnu-toolchain/build/src/newlib-gcc/newlib/libc/stdio/fvwrite.c:63
   117dc:	0105d703          	lhu	a4,16(a1)
/home/lucas/Documents/summerwork2015/riscv-material/riscv-tools/riscv-gnu-toolchain/build/src/newlib-gcc/newlib/libc/stdio/fvwrite.c:51
   117e0:	fa010113          	addi	sp,sp,-96
   117e4:	04813823          	sd	s0,80(sp)
/home/lucas/Documents/summerwork2015/riscv-material/riscv-tools/riscv-gnu-toolchain/build/src/newlib-gcc/newlib/libc/stdio/fvwrite.c:63
   117e8:	00877793          	andi	a5,a4,8
/home/lucas/Documents/summerwork2015/riscv-material/riscv-tools/riscv-gnu-toolchain/build/src/newlib-gcc/newlib/libc/stdio/fvwrite.c:51
   117ec:	03313c23          	sd	s3,56(sp)
   117f0:	03513423          	sd	s5,40(sp)
   117f4:	04113c23          	sd	ra,88(sp)
   117f8:	04913423          	sd	s1,72(sp)
   117fc:	05213023          	sd	s2,64(sp)
   11800:	03413823          	sd	s4,48(sp)
   11804:	03613023          	sd	s6,32(sp)
   11808:	01713c23          	sd	s7,24(sp)
   1180c:	01813823          	sd	s8,16(sp)
   11810:	01913423          	sd	s9,8(sp)
   11814:	01a13023          	sd	s10,0(sp)
   11818:	00058413          	mv	s0,a1
   1181c:	00050a93          	mv	s5,a0
   11820:	00060993          	mv	s3,a2
/home/lucas/Documents/summerwork2015/riscv-material/riscv-tools/riscv-gnu-toolchain/build/src/newlib-gcc/newlib/libc/stdio/fvwrite.c:63
   11824:	0a078463          	beqz	a5,118cc <__sfvwrite_r+0xf8>
/home/lucas/Documents/summerwork2015/riscv-material/riscv-tools/riscv-gnu-toolchain/build/src/newlib-gcc/newlib/libc/stdio/fvwrite.c:63 (discriminator 2)
   11828:	0185b783          	ld	a5,24(a1)
   1182c:	0a078063          	beqz	a5,118cc <__sfvwrite_r+0xf8>
/home/lucas/Documents/summerwork2015/riscv-material/riscv-tools/riscv-gnu-toolchain/build/src/newlib-gcc/newlib/libc/stdio/fvwrite.c:93
   11830:	00277793          	andi	a5,a4,2
/home/lucas/Documents/summerwork2015/riscv-material/riscv-tools/riscv-gnu-toolchain/build/src/newlib-gcc/newlib/libc/stdio/fvwrite.c:70
   11834:	0009b483          	ld	s1,0(s3)
/home/lucas/Documents/summerwork2015/riscv-material/riscv-tools/riscv-gnu-toolchain/build/src/newlib-gcc/newlib/libc/stdio/fvwrite.c:93
   11838:	0a078a63          	beqz	a5,118ec <__sfvwrite_r+0x118>
   1183c:	00000a13          	li	s4,0
   11840:	00000913          	li	s2,0
/home/lucas/Documents/summerwork2015/riscv-material/riscv-tools/riscv-gnu-toolchain/build/src/newlib-gcc/newlib/libc/stdio/fvwrite.c:101 (discriminator 1)
   11844:	40000b13          	li	s6,1024
   11848:	000a0613          	mv	a2,s4
   1184c:	000a8513          	mv	a0,s5
/home/lucas/Documents/summerwork2015/riscv-material/riscv-tools/riscv-gnu-toolchain/build/src/newlib-gcc/newlib/libc/stdio/fvwrite.c:100
   11850:	12090863          	beqz	s2,11980 <__sfvwrite_r+0x1ac>
/home/lucas/Documents/summerwork2015/riscv-material/riscv-tools/riscv-gnu-toolchain/build/src/newlib-gcc/newlib/libc/stdio/fvwrite.c:101
   11854:	00090693          	mv	a3,s2
   11858:	012b7463          	bleu	s2,s6,11860 <__sfvwrite_r+0x8c>
   1185c:	40000693          	li	a3,1024
   11860:	04043783          	ld	a5,64(s0)
   11864:	03043583          	ld	a1,48(s0)
   11868:	0006869b          	sext.w	a3,a3
   1186c:	000780e7          	jalr	a5
/home/lucas/Documents/summerwork2015/riscv-material/riscv-tools/riscv-gnu-toolchain/build/src/newlib-gcc/newlib/libc/stdio/fvwrite.c:104
   11870:	00050713          	mv	a4,a0
/home/lucas/Documents/summerwork2015/riscv-material/riscv-tools/riscv-gnu-toolchain/build/src/newlib-gcc/newlib/libc/stdio/fvwrite.c:102
   11874:	14a05463          	blez	a0,119bc <__sfvwrite_r+0x1e8>
/home/lucas/Documents/summerwork2015/riscv-material/riscv-tools/riscv-gnu-toolchain/build/src/newlib-gcc/newlib/libc/stdio/fvwrite.c:107
   11878:	00c9a783          	lw	a5,12(s3)
/home/lucas/Documents/summerwork2015/riscv-material/riscv-tools/riscv-gnu-toolchain/build/src/newlib-gcc/newlib/libc/stdio/fvwrite.c:104
   1187c:	00ea0a33          	add	s4,s4,a4
/home/lucas/Documents/summerwork2015/riscv-material/riscv-tools/riscv-gnu-toolchain/build/src/newlib-gcc/newlib/libc/stdio/fvwrite.c:105
   11880:	40e90933          	sub	s2,s2,a4
/home/lucas/Documents/summerwork2015/riscv-material/riscv-tools/riscv-gnu-toolchain/build/src/newlib-gcc/newlib/libc/stdio/fvwrite.c:107
   11884:	40a7853b          	subw	a0,a5,a0
   11888:	00a9a623          	sw	a0,12(s3)
   1188c:	fa051ee3          	bnez	a0,11848 <__sfvwrite_r+0x74>
/home/lucas/Documents/summerwork2015/riscv-material/riscv-tools/riscv-gnu-toolchain/build/src/newlib-gcc/newlib/libc/stdio/fvwrite.c:60
   11890:	00000513          	li	a0,0
/home/lucas/Documents/summerwork2015/riscv-material/riscv-tools/riscv-gnu-toolchain/build/src/newlib-gcc/newlib/libc/stdio/fvwrite.c:271
   11894:	05813083          	ld	ra,88(sp)
   11898:	05013403          	ld	s0,80(sp)
   1189c:	04813483          	ld	s1,72(sp)
   118a0:	04013903          	ld	s2,64(sp)
   118a4:	03813983          	ld	s3,56(sp)
   118a8:	03013a03          	ld	s4,48(sp)
   118ac:	02813a83          	ld	s5,40(sp)
   118b0:	02013b03          	ld	s6,32(sp)
   118b4:	01813b83          	ld	s7,24(sp)
   118b8:	01013c03          	ld	s8,16(sp)
   118bc:	00813c83          	ld	s9,8(sp)
   118c0:	00013d03          	ld	s10,0(sp)
   118c4:	06010113          	addi	sp,sp,96
   118c8:	00008067          	ret
/home/lucas/Documents/summerwork2015/riscv-material/riscv-tools/riscv-gnu-toolchain/build/src/newlib-gcc/newlib/libc/stdio/fvwrite.c:63 (discriminator 3)
   118cc:	00040593          	mv	a1,s0
   118d0:	000a8513          	mv	a0,s5
   118d4:	7d9000ef          	jal	128ac <__swsetup_r>
   118d8:	3a051663          	bnez	a0,11c84 <__sfvwrite_r+0x4b0>
   118dc:	01045703          	lhu	a4,16(s0)
/home/lucas/Documents/summerwork2015/riscv-material/riscv-tools/riscv-gnu-toolchain/build/src/newlib-gcc/newlib/libc/stdio/fvwrite.c:70
   118e0:	0009b483          	ld	s1,0(s3)
/home/lucas/Documents/summerwork2015/riscv-material/riscv-tools/riscv-gnu-toolchain/build/src/newlib-gcc/newlib/libc/stdio/fvwrite.c:93
   118e4:	00277793          	andi	a5,a4,2
   118e8:	f4079ae3          	bnez	a5,1183c <__sfvwrite_r+0x68>
/home/lucas/Documents/summerwork2015/riscv-material/riscv-tools/riscv-gnu-toolchain/build/src/newlib-gcc/newlib/libc/stdio/fvwrite.c:109
   118ec:	00177793          	andi	a5,a4,1
   118f0:	0e079063          	bnez	a5,119d0 <__sfvwrite_r+0x1fc>
   118f4:	00000b93          	li	s7,0
   118f8:	00000913          	li	s2,0
/home/lucas/Documents/summerwork2015/riscv-material/riscv-tools/riscv-gnu-toolchain/build/src/newlib-gcc/newlib/libc/stdio/fvwrite.c:126 (discriminator 1)
   118fc:	06090a63          	beqz	s2,11970 <__sfvwrite_r+0x19c>
/home/lucas/Documents/summerwork2015/riscv-material/riscv-tools/riscv-gnu-toolchain/build/src/newlib-gcc/newlib/libc/stdio/fvwrite.c:128
   11900:	20077793          	andi	a5,a4,512
/home/lucas/Documents/summerwork2015/riscv-material/riscv-tools/riscv-gnu-toolchain/build/src/newlib-gcc/newlib/libc/stdio/fvwrite.c:127
   11904:	00c42a03          	lw	s4,12(s0)
/home/lucas/Documents/summerwork2015/riscv-material/riscv-tools/riscv-gnu-toolchain/build/src/newlib-gcc/newlib/libc/stdio/fvwrite.c:128
   11908:	1a078c63          	beqz	a5,11ac0 <__sfvwrite_r+0x2ec>
/home/lucas/Documents/summerwork2015/riscv-material/riscv-tools/riscv-gnu-toolchain/build/src/newlib-gcc/newlib/libc/stdio/fvwrite.c:130
   1190c:	000a0c13          	mv	s8,s4
   11910:	21497a63          	bleu	s4,s2,11b24 <__sfvwrite_r+0x350>
   11914:	00043503          	ld	a0,0(s0)
   11918:	00090c9b          	sext.w	s9,s2
   1191c:	000c8b13          	mv	s6,s9
   11920:	000c8a13          	mv	s4,s9
   11924:	000b0c13          	mv	s8,s6
/home/lucas/Documents/summerwork2015/riscv-material/riscv-tools/riscv-gnu-toolchain/build/src/newlib-gcc/newlib/libc/stdio/fvwrite.c:177
   11928:	000c0613          	mv	a2,s8
   1192c:	000b8593          	mv	a1,s7
   11930:	6c4000ef          	jal	11ff4 <memmove>
/home/lucas/Documents/summerwork2015/riscv-material/riscv-tools/riscv-gnu-toolchain/build/src/newlib-gcc/newlib/libc/stdio/fvwrite.c:178
   11934:	00c42683          	lw	a3,12(s0)
/home/lucas/Documents/summerwork2015/riscv-material/riscv-tools/riscv-gnu-toolchain/build/src/newlib-gcc/newlib/libc/stdio/fvwrite.c:179
   11938:	00043783          	ld	a5,0(s0)
   1193c:	000b0713          	mv	a4,s6
/home/lucas/Documents/summerwork2015/riscv-material/riscv-tools/riscv-gnu-toolchain/build/src/newlib-gcc/newlib/libc/stdio/fvwrite.c:178
   11940:	41968cbb          	subw	s9,a3,s9
/home/lucas/Documents/summerwork2015/riscv-material/riscv-tools/riscv-gnu-toolchain/build/src/newlib-gcc/newlib/libc/stdio/fvwrite.c:179
   11944:	01878c33          	add	s8,a5,s8
/home/lucas/Documents/summerwork2015/riscv-material/riscv-tools/riscv-gnu-toolchain/build/src/newlib-gcc/newlib/libc/stdio/fvwrite.c:178
   11948:	01942623          	sw	s9,12(s0)
/home/lucas/Documents/summerwork2015/riscv-material/riscv-tools/riscv-gnu-toolchain/build/src/newlib-gcc/newlib/libc/stdio/fvwrite.c:179
   1194c:	01843023          	sd	s8,0(s0)
/home/lucas/Documents/summerwork2015/riscv-material/riscv-tools/riscv-gnu-toolchain/build/src/newlib-gcc/newlib/libc/stdio/fvwrite.c:209
   11950:	00c9a783          	lw	a5,12(s3)
/home/lucas/Documents/summerwork2015/riscv-material/riscv-tools/riscv-gnu-toolchain/build/src/newlib-gcc/newlib/libc/stdio/fvwrite.c:206
   11954:	00eb8bb3          	add	s7,s7,a4
/home/lucas/Documents/summerwork2015/riscv-material/riscv-tools/riscv-gnu-toolchain/build/src/newlib-gcc/newlib/libc/stdio/fvwrite.c:207
   11958:	40e90933          	sub	s2,s2,a4
/home/lucas/Documents/summerwork2015/riscv-material/riscv-tools/riscv-gnu-toolchain/build/src/newlib-gcc/newlib/libc/stdio/fvwrite.c:209
   1195c:	41478a3b          	subw	s4,a5,s4
   11960:	0149a623          	sw	s4,12(s3)
   11964:	f20a06e3          	beqz	s4,11890 <__sfvwrite_r+0xbc>
   11968:	01045703          	lhu	a4,16(s0)
/home/lucas/Documents/summerwork2015/riscv-material/riscv-tools/riscv-gnu-toolchain/build/src/newlib-gcc/newlib/libc/stdio/fvwrite.c:126
   1196c:	f8091ae3          	bnez	s2,11900 <__sfvwrite_r+0x12c>
/home/lucas/Documents/summerwork2015/riscv-material/riscv-tools/riscv-gnu-toolchain/build/src/newlib-gcc/newlib/libc/stdio/fvwrite.c:126 (discriminator 2)
   11970:	0004bb83          	ld	s7,0(s1)
   11974:	0084b903          	ld	s2,8(s1)
   11978:	01048493          	addi	s1,s1,16
   1197c:	f81ff06f          	j	118fc <__sfvwrite_r+0x128>
/home/lucas/Documents/summerwork2015/riscv-material/riscv-tools/riscv-gnu-toolchain/build/src/newlib-gcc/newlib/libc/stdio/fvwrite.c:100
   11980:	0004ba03          	ld	s4,0(s1)
   11984:	0084b903          	ld	s2,8(s1)
   11988:	01048493          	addi	s1,s1,16
   1198c:	ebdff06f          	j	11848 <__sfvwrite_r+0x74>
/home/lucas/Documents/summerwork2015/riscv-material/riscv-tools/riscv-gnu-toolchain/build/src/newlib-gcc/newlib/libc/stdio/fvwrite.c:60
   11990:	00000513          	li	a0,0
/home/lucas/Documents/summerwork2015/riscv-material/riscv-tools/riscv-gnu-toolchain/build/src/newlib-gcc/newlib/libc/stdio/fvwrite.c:271
   11994:	00008067          	ret
/home/lucas/Documents/summerwork2015/riscv-material/riscv-tools/riscv-gnu-toolchain/build/src/newlib-gcc/newlib/libc/stdio/fvwrite.c:158
   11998:	000a8513          	mv	a0,s5
   1199c:	049000ef          	jal	121e4 <_realloc_r>
   119a0:	00050d13          	mv	s10,a0
/home/lucas/Documents/summerwork2015/riscv-material/riscv-tools/riscv-gnu-toolchain/build/src/newlib-gcc/newlib/libc/stdio/fvwrite.c:160
   119a4:	26051a63          	bnez	a0,11c18 <__sfvwrite_r+0x444>
/home/lucas/Documents/summerwork2015/riscv-material/riscv-tools/riscv-gnu-toolchain/build/src/newlib-gcc/newlib/libc/stdio/fvwrite.c:163
   119a8:	01843583          	ld	a1,24(s0)
   119ac:	000a8513          	mv	a0,s5
   119b0:	b19ff0ef          	jal	114c8 <_free_r>
/home/lucas/Documents/summerwork2015/riscv-material/riscv-tools/riscv-gnu-toolchain/build/src/newlib-gcc/newlib/libc/stdio/fvwrite.c:165
   119b4:	00c00793          	li	a5,12
   119b8:	00faa023          	sw	a5,0(s5)
/home/lucas/Documents/summerwork2015/riscv-material/riscv-tools/riscv-gnu-toolchain/build/src/newlib-gcc/newlib/libc/stdio/fvwrite.c:269
   119bc:	01045783          	lhu	a5,16(s0)
/home/lucas/Documents/summerwork2015/riscv-material/riscv-tools/riscv-gnu-toolchain/build/src/newlib-gcc/newlib/libc/stdio/fvwrite.c:270
   119c0:	fff00513          	li	a0,-1
/home/lucas/Documents/summerwork2015/riscv-material/riscv-tools/riscv-gnu-toolchain/build/src/newlib-gcc/newlib/libc/stdio/fvwrite.c:269
   119c4:	0407e793          	ori	a5,a5,64
   119c8:	00f41823          	sh	a5,16(s0)
/home/lucas/Documents/summerwork2015/riscv-material/riscv-tools/riscv-gnu-toolchain/build/src/newlib-gcc/newlib/libc/stdio/fvwrite.c:270
   119cc:	ec9ff06f          	j	11894 <__sfvwrite_r+0xc0>
   119d0:	00000b13          	li	s6,0
   119d4:	00000b93          	li	s7,0
   119d8:	00000c93          	li	s9,0
   119dc:	00000a13          	li	s4,0
/home/lucas/Documents/summerwork2015/riscv-material/riscv-tools/riscv-gnu-toolchain/build/src/newlib-gcc/newlib/libc/stdio/fvwrite.c:224 (discriminator 1)
   119e0:	060a0e63          	beqz	s4,11a5c <__sfvwrite_r+0x288>
/home/lucas/Documents/summerwork2015/riscv-material/riscv-tools/riscv-gnu-toolchain/build/src/newlib-gcc/newlib/libc/stdio/fvwrite.c:225
   119e4:	180b8a63          	beqz	s7,11b78 <__sfvwrite_r+0x3a4>
/home/lucas/Documents/summerwork2015/riscv-material/riscv-tools/riscv-gnu-toolchain/build/src/newlib-gcc/newlib/libc/stdio/fvwrite.c:231
   119e8:	000b0913          	mv	s2,s6
   119ec:	016a7463          	bleu	s6,s4,119f4 <__sfvwrite_r+0x220>
   119f0:	000a0913          	mv	s2,s4
/home/lucas/Documents/summerwork2015/riscv-material/riscv-tools/riscv-gnu-toolchain/build/src/newlib-gcc/newlib/libc/stdio/fvwrite.c:233
   119f4:	00043503          	ld	a0,0(s0)
   119f8:	01843783          	ld	a5,24(s0)
/home/lucas/Documents/summerwork2015/riscv-material/riscv-tools/riscv-gnu-toolchain/build/src/newlib-gcc/newlib/libc/stdio/fvwrite.c:231
   119fc:	0009091b          	sext.w	s2,s2
/home/lucas/Documents/summerwork2015/riscv-material/riscv-tools/riscv-gnu-toolchain/build/src/newlib-gcc/newlib/libc/stdio/fvwrite.c:232
   11a00:	02042683          	lw	a3,32(s0)
/home/lucas/Documents/summerwork2015/riscv-material/riscv-tools/riscv-gnu-toolchain/build/src/newlib-gcc/newlib/libc/stdio/fvwrite.c:233
   11a04:	00a7f863          	bleu	a0,a5,11a14 <__sfvwrite_r+0x240>
/home/lucas/Documents/summerwork2015/riscv-material/riscv-tools/riscv-gnu-toolchain/build/src/newlib-gcc/newlib/libc/stdio/fvwrite.c:232 (discriminator 1)
   11a08:	00c42c03          	lw	s8,12(s0)
   11a0c:	01868c3b          	addw	s8,a3,s8
/home/lucas/Documents/summerwork2015/riscv-material/riscv-tools/riscv-gnu-toolchain/build/src/newlib-gcc/newlib/libc/stdio/fvwrite.c:233
   11a10:	072c4063          	blt	s8,s2,11a70 <__sfvwrite_r+0x29c>
/home/lucas/Documents/summerwork2015/riscv-material/riscv-tools/riscv-gnu-toolchain/build/src/newlib-gcc/newlib/libc/stdio/fvwrite.c:241
   11a14:	0ed94463          	blt	s2,a3,11afc <__sfvwrite_r+0x328>
/home/lucas/Documents/summerwork2015/riscv-material/riscv-tools/riscv-gnu-toolchain/build/src/newlib-gcc/newlib/libc/stdio/fvwrite.c:243
   11a18:	04043783          	ld	a5,64(s0)
   11a1c:	03043583          	ld	a1,48(s0)
   11a20:	000c8613          	mv	a2,s9
   11a24:	000a8513          	mv	a0,s5
   11a28:	000780e7          	jalr	a5
   11a2c:	00050913          	mv	s2,a0
/home/lucas/Documents/summerwork2015/riscv-material/riscv-tools/riscv-gnu-toolchain/build/src/newlib-gcc/newlib/libc/stdio/fvwrite.c:244
   11a30:	f8a056e3          	blez	a0,119bc <__sfvwrite_r+0x1e8>
/home/lucas/Documents/summerwork2015/riscv-material/riscv-tools/riscv-gnu-toolchain/build/src/newlib-gcc/newlib/libc/stdio/fvwrite.c:254
   11a34:	412b0b3b          	subw	s6,s6,s2
   11a38:	060b0863          	beqz	s6,11aa8 <__sfvwrite_r+0x2d4>
/home/lucas/Documents/summerwork2015/riscv-material/riscv-tools/riscv-gnu-toolchain/build/src/newlib-gcc/newlib/libc/stdio/fvwrite.c:264
   11a3c:	00c9a783          	lw	a5,12(s3)
/home/lucas/Documents/summerwork2015/riscv-material/riscv-tools/riscv-gnu-toolchain/build/src/newlib-gcc/newlib/libc/stdio/fvwrite.c:261
   11a40:	00090713          	mv	a4,s2
   11a44:	012c8cb3          	add	s9,s9,s2
/home/lucas/Documents/summerwork2015/riscv-material/riscv-tools/riscv-gnu-toolchain/build/src/newlib-gcc/newlib/libc/stdio/fvwrite.c:264
   11a48:	4127893b          	subw	s2,a5,s2
/home/lucas/Documents/summerwork2015/riscv-material/riscv-tools/riscv-gnu-toolchain/build/src/newlib-gcc/newlib/libc/stdio/fvwrite.c:262
   11a4c:	40ea0a33          	sub	s4,s4,a4
/home/lucas/Documents/summerwork2015/riscv-material/riscv-tools/riscv-gnu-toolchain/build/src/newlib-gcc/newlib/libc/stdio/fvwrite.c:264
   11a50:	0129a623          	sw	s2,12(s3)
   11a54:	e2090ee3          	beqz	s2,11890 <__sfvwrite_r+0xbc>
/home/lucas/Documents/summerwork2015/riscv-material/riscv-tools/riscv-gnu-toolchain/build/src/newlib-gcc/newlib/libc/stdio/fvwrite.c:224
   11a58:	f80a16e3          	bnez	s4,119e4 <__sfvwrite_r+0x210>
/home/lucas/Documents/summerwork2015/riscv-material/riscv-tools/riscv-gnu-toolchain/build/src/newlib-gcc/newlib/libc/stdio/fvwrite.c:224 (discriminator 2)
   11a5c:	0004bc83          	ld	s9,0(s1)
   11a60:	0084ba03          	ld	s4,8(s1)
   11a64:	00000b93          	li	s7,0
   11a68:	01048493          	addi	s1,s1,16
   11a6c:	f75ff06f          	j	119e0 <__sfvwrite_r+0x20c>
/home/lucas/Documents/summerwork2015/riscv-material/riscv-tools/riscv-gnu-toolchain/build/src/newlib-gcc/newlib/libc/stdio/fvwrite.c:235
   11a70:	000c8593          	mv	a1,s9
   11a74:	000c0613          	mv	a2,s8
   11a78:	57c000ef          	jal	11ff4 <memmove>
/home/lucas/Documents/summerwork2015/riscv-material/riscv-tools/riscv-gnu-toolchain/build/src/newlib-gcc/newlib/libc/stdio/fvwrite.c:237
   11a7c:	00043703          	ld	a4,0(s0)
/home/lucas/Documents/summerwork2015/riscv-material/riscv-tools/riscv-gnu-toolchain/build/src/newlib-gcc/newlib/libc/stdio/fvwrite.c:235
   11a80:	000c0793          	mv	a5,s8
/home/lucas/Documents/summerwork2015/riscv-material/riscv-tools/riscv-gnu-toolchain/build/src/newlib-gcc/newlib/libc/stdio/fvwrite.c:238
   11a84:	00040593          	mv	a1,s0
/home/lucas/Documents/summerwork2015/riscv-material/riscv-tools/riscv-gnu-toolchain/build/src/newlib-gcc/newlib/libc/stdio/fvwrite.c:237
   11a88:	00f707b3          	add	a5,a4,a5
   11a8c:	00f43023          	sd	a5,0(s0)
/home/lucas/Documents/summerwork2015/riscv-material/riscv-tools/riscv-gnu-toolchain/build/src/newlib-gcc/newlib/libc/stdio/fvwrite.c:238
   11a90:	000a8513          	mv	a0,s5
   11a94:	07c010ef          	jal	12b10 <_fflush_r>
   11a98:	f20512e3          	bnez	a0,119bc <__sfvwrite_r+0x1e8>
   11a9c:	000c0913          	mv	s2,s8
/home/lucas/Documents/summerwork2015/riscv-material/riscv-tools/riscv-gnu-toolchain/build/src/newlib-gcc/newlib/libc/stdio/fvwrite.c:254
   11aa0:	412b0b3b          	subw	s6,s6,s2
   11aa4:	f80b1ce3          	bnez	s6,11a3c <__sfvwrite_r+0x268>
/home/lucas/Documents/summerwork2015/riscv-material/riscv-tools/riscv-gnu-toolchain/build/src/newlib-gcc/newlib/libc/stdio/fvwrite.c:257
   11aa8:	00040593          	mv	a1,s0
   11aac:	000a8513          	mv	a0,s5
   11ab0:	060010ef          	jal	12b10 <_fflush_r>
   11ab4:	f00514e3          	bnez	a0,119bc <__sfvwrite_r+0x1e8>
/home/lucas/Documents/summerwork2015/riscv-material/riscv-tools/riscv-gnu-toolchain/build/src/newlib-gcc/newlib/libc/stdio/fvwrite.c:259
   11ab8:	00000b93          	li	s7,0
   11abc:	f81ff06f          	j	11a3c <__sfvwrite_r+0x268>
/home/lucas/Documents/summerwork2015/riscv-material/riscv-tools/riscv-gnu-toolchain/build/src/newlib-gcc/newlib/libc/stdio/fvwrite.c:182
   11ac0:	00043503          	ld	a0,0(s0)
   11ac4:	01843783          	ld	a5,24(s0)
   11ac8:	00a7f463          	bleu	a0,a5,11ad0 <__sfvwrite_r+0x2fc>
/home/lucas/Documents/summerwork2015/riscv-material/riscv-tools/riscv-gnu-toolchain/build/src/newlib-gcc/newlib/libc/stdio/fvwrite.c:182 (discriminator 1)
   11acc:	172a6e63          	bltu	s4,s2,11c48 <__sfvwrite_r+0x474>
/home/lucas/Documents/summerwork2015/riscv-material/riscv-tools/riscv-gnu-toolchain/build/src/newlib-gcc/newlib/libc/stdio/fvwrite.c:191
   11ad0:	02042683          	lw	a3,32(s0)
   11ad4:	06d96863          	bltu	s2,a3,11b44 <__sfvwrite_r+0x370>
/home/lucas/Documents/summerwork2015/riscv-material/riscv-tools/riscv-gnu-toolchain/build/src/newlib-gcc/newlib/libc/stdio/fvwrite.c:194
   11ad8:	04043783          	ld	a5,64(s0)
   11adc:	03043583          	ld	a1,48(s0)
   11ae0:	000b8613          	mv	a2,s7
   11ae4:	000a8513          	mv	a0,s5
   11ae8:	000780e7          	jalr	a5
   11aec:	00050a13          	mv	s4,a0
/home/lucas/Documents/summerwork2015/riscv-material/riscv-tools/riscv-gnu-toolchain/build/src/newlib-gcc/newlib/libc/stdio/fvwrite.c:195
   11af0:	eca056e3          	blez	a0,119bc <__sfvwrite_r+0x1e8>
/home/lucas/Documents/summerwork2015/riscv-material/riscv-tools/riscv-gnu-toolchain/build/src/newlib-gcc/newlib/libc/stdio/fvwrite.c:204
   11af4:	000a0713          	mv	a4,s4
   11af8:	e59ff06f          	j	11950 <__sfvwrite_r+0x17c>
/home/lucas/Documents/summerwork2015/riscv-material/riscv-tools/riscv-gnu-toolchain/build/src/newlib-gcc/newlib/libc/stdio/fvwrite.c:250
   11afc:	00090613          	mv	a2,s2
   11b00:	000c8593          	mv	a1,s9
   11b04:	4f0000ef          	jal	11ff4 <memmove>
/home/lucas/Documents/summerwork2015/riscv-material/riscv-tools/riscv-gnu-toolchain/build/src/newlib-gcc/newlib/libc/stdio/fvwrite.c:251
   11b08:	00c42683          	lw	a3,12(s0)
/home/lucas/Documents/summerwork2015/riscv-material/riscv-tools/riscv-gnu-toolchain/build/src/newlib-gcc/newlib/libc/stdio/fvwrite.c:252
   11b0c:	00043703          	ld	a4,0(s0)
/home/lucas/Documents/summerwork2015/riscv-material/riscv-tools/riscv-gnu-toolchain/build/src/newlib-gcc/newlib/libc/stdio/fvwrite.c:251
   11b10:	412686bb          	subw	a3,a3,s2
/home/lucas/Documents/summerwork2015/riscv-material/riscv-tools/riscv-gnu-toolchain/build/src/newlib-gcc/newlib/libc/stdio/fvwrite.c:252
   11b14:	012707b3          	add	a5,a4,s2
/home/lucas/Documents/summerwork2015/riscv-material/riscv-tools/riscv-gnu-toolchain/build/src/newlib-gcc/newlib/libc/stdio/fvwrite.c:251
   11b18:	00d42623          	sw	a3,12(s0)
/home/lucas/Documents/summerwork2015/riscv-material/riscv-tools/riscv-gnu-toolchain/build/src/newlib-gcc/newlib/libc/stdio/fvwrite.c:252
   11b1c:	00f43023          	sd	a5,0(s0)
   11b20:	f15ff06f          	j	11a34 <__sfvwrite_r+0x260>
/home/lucas/Documents/summerwork2015/riscv-material/riscv-tools/riscv-gnu-toolchain/build/src/newlib-gcc/newlib/libc/stdio/fvwrite.c:130 (discriminator 1)
   11b24:	48077793          	andi	a5,a4,1152
   11b28:	06079a63          	bnez	a5,11b9c <__sfvwrite_r+0x3c8>
   11b2c:	0009079b          	sext.w	a5,s2
/home/lucas/Documents/summerwork2015/riscv-material/riscv-tools/riscv-gnu-toolchain/build/src/newlib-gcc/newlib/libc/stdio/fvwrite.c:127
   11b30:	000a0c93          	mv	s9,s4
   11b34:	00078a13          	mv	s4,a5
   11b38:	00043503          	ld	a0,0(s0)
   11b3c:	000a0b13          	mv	s6,s4
   11b40:	de9ff06f          	j	11928 <__sfvwrite_r+0x154>
/home/lucas/Documents/summerwork2015/riscv-material/riscv-tools/riscv-gnu-toolchain/build/src/newlib-gcc/newlib/libc/stdio/fvwrite.c:201
   11b44:	00090a1b          	sext.w	s4,s2
/home/lucas/Documents/summerwork2015/riscv-material/riscv-tools/riscv-gnu-toolchain/build/src/newlib-gcc/newlib/libc/stdio/fvwrite.c:202
   11b48:	000a0613          	mv	a2,s4
   11b4c:	000b8593          	mv	a1,s7
   11b50:	4a4000ef          	jal	11ff4 <memmove>
/home/lucas/Documents/summerwork2015/riscv-material/riscv-tools/riscv-gnu-toolchain/build/src/newlib-gcc/newlib/libc/stdio/fvwrite.c:203
   11b54:	00c42703          	lw	a4,12(s0)
/home/lucas/Documents/summerwork2015/riscv-material/riscv-tools/riscv-gnu-toolchain/build/src/newlib-gcc/newlib/libc/stdio/fvwrite.c:204
   11b58:	00043783          	ld	a5,0(s0)
/home/lucas/Documents/summerwork2015/riscv-material/riscv-tools/riscv-gnu-toolchain/build/src/newlib-gcc/newlib/libc/stdio/fvwrite.c:202
   11b5c:	000a0693          	mv	a3,s4
/home/lucas/Documents/summerwork2015/riscv-material/riscv-tools/riscv-gnu-toolchain/build/src/newlib-gcc/newlib/libc/stdio/fvwrite.c:203
   11b60:	4147073b          	subw	a4,a4,s4
/home/lucas/Documents/summerwork2015/riscv-material/riscv-tools/riscv-gnu-toolchain/build/src/newlib-gcc/newlib/libc/stdio/fvwrite.c:204
   11b64:	00d787b3          	add	a5,a5,a3
/home/lucas/Documents/summerwork2015/riscv-material/riscv-tools/riscv-gnu-toolchain/build/src/newlib-gcc/newlib/libc/stdio/fvwrite.c:203
   11b68:	00e42623          	sw	a4,12(s0)
/home/lucas/Documents/summerwork2015/riscv-material/riscv-tools/riscv-gnu-toolchain/build/src/newlib-gcc/newlib/libc/stdio/fvwrite.c:204
   11b6c:	00f43023          	sd	a5,0(s0)
   11b70:	000a0713          	mv	a4,s4
   11b74:	dddff06f          	j	11950 <__sfvwrite_r+0x17c>
/home/lucas/Documents/summerwork2015/riscv-material/riscv-tools/riscv-gnu-toolchain/build/src/newlib-gcc/newlib/libc/stdio/fvwrite.c:227
   11b78:	000a0613          	mv	a2,s4
   11b7c:	00a00593          	li	a1,10
   11b80:	000c8513          	mv	a0,s9
   11b84:	274000ef          	jal	11df8 <memchr>
/home/lucas/Documents/summerwork2015/riscv-material/riscv-tools/riscv-gnu-toolchain/build/src/newlib-gcc/newlib/libc/stdio/fvwrite.c:228
   11b88:	0e050863          	beqz	a0,11c78 <__sfvwrite_r+0x4a4>
/home/lucas/Documents/summerwork2015/riscv-material/riscv-tools/riscv-gnu-toolchain/build/src/newlib-gcc/newlib/libc/stdio/fvwrite.c:228 (discriminator 1)
   11b8c:	00150b13          	addi	s6,a0,1
   11b90:	419b0b3b          	subw	s6,s6,s9
/home/lucas/Documents/summerwork2015/riscv-material/riscv-tools/riscv-gnu-toolchain/build/src/newlib-gcc/newlib/libc/stdio/fvwrite.c:229
   11b94:	00100b93          	li	s7,1
   11b98:	e51ff06f          	j	119e8 <__sfvwrite_r+0x214>
/home/lucas/Documents/summerwork2015/riscv-material/riscv-tools/riscv-gnu-toolchain/build/src/newlib-gcc/newlib/libc/stdio/fvwrite.c:141
   11b9c:	02042c03          	lw	s8,32(s0)
/home/lucas/Documents/summerwork2015/riscv-material/riscv-tools/riscv-gnu-toolchain/build/src/newlib-gcc/newlib/libc/stdio/fvwrite.c:133
   11ba0:	01843583          	ld	a1,24(s0)
   11ba4:	00043b03          	ld	s6,0(s0)
/home/lucas/Documents/summerwork2015/riscv-material/riscv-tools/riscv-gnu-toolchain/build/src/newlib-gcc/newlib/libc/stdio/fvwrite.c:141
   11ba8:	001c179b          	slliw	a5,s8,0x1
   11bac:	01878c3b          	addw	s8,a5,s8
   11bb0:	01fc579b          	srliw	a5,s8,0x1f
/home/lucas/Documents/summerwork2015/riscv-material/riscv-tools/riscv-gnu-toolchain/build/src/newlib-gcc/newlib/libc/stdio/fvwrite.c:133
   11bb4:	40bb0b3b          	subw	s6,s6,a1
/home/lucas/Documents/summerwork2015/riscv-material/riscv-tools/riscv-gnu-toolchain/build/src/newlib-gcc/newlib/libc/stdio/fvwrite.c:141
   11bb8:	01878c3b          	addw	s8,a5,s8
/home/lucas/Documents/summerwork2015/riscv-material/riscv-tools/riscv-gnu-toolchain/build/src/newlib-gcc/newlib/libc/stdio/fvwrite.c:142
   11bbc:	000b0a13          	mv	s4,s6
/home/lucas/Documents/summerwork2015/riscv-material/riscv-tools/riscv-gnu-toolchain/build/src/newlib-gcc/newlib/libc/stdio/fvwrite.c:141
   11bc0:	401c5c1b          	sraiw	s8,s8,0x1
/home/lucas/Documents/summerwork2015/riscv-material/riscv-tools/riscv-gnu-toolchain/build/src/newlib-gcc/newlib/libc/stdio/fvwrite.c:142
   11bc4:	001a0793          	addi	a5,s4,1
   11bc8:	000c0613          	mv	a2,s8
   11bcc:	012787b3          	add	a5,a5,s2
   11bd0:	00f67863          	bleu	a5,a2,11be0 <__sfvwrite_r+0x40c>
/home/lucas/Documents/summerwork2015/riscv-material/riscv-tools/riscv-gnu-toolchain/build/src/newlib-gcc/newlib/libc/stdio/fvwrite.c:143
   11bd4:	001b0c1b          	addiw	s8,s6,1
   11bd8:	01890c3b          	addw	s8,s2,s8
   11bdc:	000c0613          	mv	a2,s8
/home/lucas/Documents/summerwork2015/riscv-material/riscv-tools/riscv-gnu-toolchain/build/src/newlib-gcc/newlib/libc/stdio/fvwrite.c:144
   11be0:	40077713          	andi	a4,a4,1024
   11be4:	da070ae3          	beqz	a4,11998 <__sfvwrite_r+0x1c4>
/home/lucas/Documents/summerwork2015/riscv-material/riscv-tools/riscv-gnu-toolchain/build/src/newlib-gcc/newlib/libc/stdio/fvwrite.c:147
   11be8:	00060593          	mv	a1,a2
   11bec:	000a8513          	mv	a0,s5
   11bf0:	85dfe0ef          	jal	1044c <_malloc_r>
   11bf4:	00050d13          	mv	s10,a0
/home/lucas/Documents/summerwork2015/riscv-material/riscv-tools/riscv-gnu-toolchain/build/src/newlib-gcc/newlib/libc/stdio/fvwrite.c:148
   11bf8:	da050ee3          	beqz	a0,119b4 <__sfvwrite_r+0x1e0>
/home/lucas/Documents/summerwork2015/riscv-material/riscv-tools/riscv-gnu-toolchain/build/src/newlib-gcc/newlib/libc/stdio/fvwrite.c:153
   11bfc:	01843583          	ld	a1,24(s0)
   11c00:	000a0613          	mv	a2,s4
   11c04:	2d0000ef          	jal	11ed4 <memcpy>
/home/lucas/Documents/summerwork2015/riscv-material/riscv-tools/riscv-gnu-toolchain/build/src/newlib-gcc/newlib/libc/stdio/fvwrite.c:154
   11c08:	01045783          	lhu	a5,16(s0)
   11c0c:	b7f7f793          	andi	a5,a5,-1153
   11c10:	0807e793          	ori	a5,a5,128
   11c14:	00f41823          	sh	a5,16(s0)
/home/lucas/Documents/summerwork2015/riscv-material/riscv-tools/riscv-gnu-toolchain/build/src/newlib-gcc/newlib/libc/stdio/fvwrite.c:172
   11c18:	00090c9b          	sext.w	s9,s2
/home/lucas/Documents/summerwork2015/riscv-material/riscv-tools/riscv-gnu-toolchain/build/src/newlib-gcc/newlib/libc/stdio/fvwrite.c:173
   11c1c:	416c07bb          	subw	a5,s8,s6
/home/lucas/Documents/summerwork2015/riscv-material/riscv-tools/riscv-gnu-toolchain/build/src/newlib-gcc/newlib/libc/stdio/fvwrite.c:170
   11c20:	014d0533          	add	a0,s10,s4
/home/lucas/Documents/summerwork2015/riscv-material/riscv-tools/riscv-gnu-toolchain/build/src/newlib-gcc/newlib/libc/stdio/fvwrite.c:175
   11c24:	000c8b13          	mv	s6,s9
/home/lucas/Documents/summerwork2015/riscv-material/riscv-tools/riscv-gnu-toolchain/build/src/newlib-gcc/newlib/libc/stdio/fvwrite.c:171
   11c28:	03842023          	sw	s8,32(s0)
/home/lucas/Documents/summerwork2015/riscv-material/riscv-tools/riscv-gnu-toolchain/build/src/newlib-gcc/newlib/libc/stdio/fvwrite.c:169
   11c2c:	01a43c23          	sd	s10,24(s0)
/home/lucas/Documents/summerwork2015/riscv-material/riscv-tools/riscv-gnu-toolchain/build/src/newlib-gcc/newlib/libc/stdio/fvwrite.c:170
   11c30:	00a43023          	sd	a0,0(s0)
/home/lucas/Documents/summerwork2015/riscv-material/riscv-tools/riscv-gnu-toolchain/build/src/newlib-gcc/newlib/libc/stdio/fvwrite.c:173
   11c34:	00f42623          	sw	a5,12(s0)
   11c38:	000c8a13          	mv	s4,s9
   11c3c:	000c8c13          	mv	s8,s9
/home/lucas/Documents/summerwork2015/riscv-material/riscv-tools/riscv-gnu-toolchain/build/src/newlib-gcc/newlib/libc/stdio/fvwrite.c:175
   11c40:	cf6974e3          	bleu	s6,s2,11928 <__sfvwrite_r+0x154>
   11c44:	cddff06f          	j	11920 <__sfvwrite_r+0x14c>
/home/lucas/Documents/summerwork2015/riscv-material/riscv-tools/riscv-gnu-toolchain/build/src/newlib-gcc/newlib/libc/stdio/fvwrite.c:185
   11c48:	000b8593          	mv	a1,s7
   11c4c:	000a0613          	mv	a2,s4
   11c50:	3a4000ef          	jal	11ff4 <memmove>
/home/lucas/Documents/summerwork2015/riscv-material/riscv-tools/riscv-gnu-toolchain/build/src/newlib-gcc/newlib/libc/stdio/fvwrite.c:187
   11c54:	00043783          	ld	a5,0(s0)
/home/lucas/Documents/summerwork2015/riscv-material/riscv-tools/riscv-gnu-toolchain/build/src/newlib-gcc/newlib/libc/stdio/fvwrite.c:188
   11c58:	00040593          	mv	a1,s0
   11c5c:	000a8513          	mv	a0,s5
/home/lucas/Documents/summerwork2015/riscv-material/riscv-tools/riscv-gnu-toolchain/build/src/newlib-gcc/newlib/libc/stdio/fvwrite.c:187
   11c60:	01478b33          	add	s6,a5,s4
   11c64:	01643023          	sd	s6,0(s0)
/home/lucas/Documents/summerwork2015/riscv-material/riscv-tools/riscv-gnu-toolchain/build/src/newlib-gcc/newlib/libc/stdio/fvwrite.c:188
   11c68:	6a9000ef          	jal	12b10 <_fflush_r>
   11c6c:	d40518e3          	bnez	a0,119bc <__sfvwrite_r+0x1e8>
/home/lucas/Documents/summerwork2015/riscv-material/riscv-tools/riscv-gnu-toolchain/build/src/newlib-gcc/newlib/libc/stdio/fvwrite.c:204
   11c70:	000a0713          	mv	a4,s4
   11c74:	cddff06f          	j	11950 <__sfvwrite_r+0x17c>
/home/lucas/Documents/summerwork2015/riscv-material/riscv-tools/riscv-gnu-toolchain/build/src/newlib-gcc/newlib/libc/stdio/fvwrite.c:228 (discriminator 2)
   11c78:	001a0b1b          	addiw	s6,s4,1
/home/lucas/Documents/summerwork2015/riscv-material/riscv-tools/riscv-gnu-toolchain/build/src/newlib-gcc/newlib/libc/stdio/fvwrite.c:229
   11c7c:	00100b93          	li	s7,1
   11c80:	d69ff06f          	j	119e8 <__sfvwrite_r+0x214>
/home/lucas/Documents/summerwork2015/riscv-material/riscv-tools/riscv-gnu-toolchain/build/src/newlib-gcc/newlib/libc/stdio/fvwrite.c:65
   11c84:	01045783          	lhu	a5,16(s0)
/home/lucas/Documents/summerwork2015/riscv-material/riscv-tools/riscv-gnu-toolchain/build/src/newlib-gcc/newlib/libc/stdio/fvwrite.c:67
   11c88:	fff00513          	li	a0,-1
/home/lucas/Documents/summerwork2015/riscv-material/riscv-tools/riscv-gnu-toolchain/build/src/newlib-gcc/newlib/libc/stdio/fvwrite.c:65
   11c8c:	0407e793          	ori	a5,a5,64
   11c90:	00f41823          	sh	a5,16(s0)
/home/lucas/Documents/summerwork2015/riscv-material/riscv-tools/riscv-gnu-toolchain/build/src/newlib-gcc/newlib/libc/stdio/fvwrite.c:66
   11c94:	00900793          	li	a5,9
   11c98:	00faa023          	sw	a5,0(s5)
/home/lucas/Documents/summerwork2015/riscv-material/riscv-tools/riscv-gnu-toolchain/build/src/newlib-gcc/newlib/libc/stdio/fvwrite.c:67
   11c9c:	bf9ff06f          	j	11894 <__sfvwrite_r+0xc0>

0000000000011ca0 <_fwalk>:
_fwalk():
/home/lucas/Documents/summerwork2015/riscv-material/riscv-tools/riscv-gnu-toolchain/build/src/newlib-gcc/newlib/libc/stdio/fwalk.c:76
   11ca0:	fc010113          	addi	sp,sp,-64
   11ca4:	01313c23          	sd	s3,24(sp)
__fwalk():
/home/lucas/Documents/summerwork2015/riscv-material/riscv-tools/riscv-gnu-toolchain/build/src/newlib-gcc/newlib/libc/stdio/fwalk.c:39
   11ca8:	52050993          	addi	s3,a0,1312
_fwalk():
/home/lucas/Documents/summerwork2015/riscv-material/riscv-tools/riscv-gnu-toolchain/build/src/newlib-gcc/newlib/libc/stdio/fwalk.c:76
   11cac:	01413823          	sd	s4,16(sp)
   11cb0:	01513423          	sd	s5,8(sp)
   11cb4:	02113c23          	sd	ra,56(sp)
   11cb8:	02813823          	sd	s0,48(sp)
   11cbc:	02913423          	sd	s1,40(sp)
   11cc0:	03213023          	sd	s2,32(sp)
   11cc4:	00058a93          	mv	s5,a1
__fwalk():
/home/lucas/Documents/summerwork2015/riscv-material/riscv-tools/riscv-gnu-toolchain/build/src/newlib-gcc/newlib/libc/stdio/fwalk.c:39
   11cc8:	00000a13          	li	s4,0
_fwalk():
/home/lucas/Documents/summerwork2015/riscv-material/riscv-tools/riscv-gnu-toolchain/build/src/newlib-gcc/newlib/libc/stdio/fwalk.c:79
   11ccc:	eb4ff0ef          	jal	11380 <__sfp_lock_acquire>
__fwalk():
/home/lucas/Documents/summerwork2015/riscv-material/riscv-tools/riscv-gnu-toolchain/build/src/newlib-gcc/newlib/libc/stdio/fwalk.c:39
   11cd0:	04098463          	beqz	s3,11d18 <_fwalk+0x78>
/home/lucas/Documents/summerwork2015/riscv-material/riscv-tools/riscv-gnu-toolchain/build/src/newlib-gcc/newlib/libc/stdio/fwalk.c:43
   11cd4:	fff00913          	li	s2,-1
/home/lucas/Documents/summerwork2015/riscv-material/riscv-tools/riscv-gnu-toolchain/build/src/newlib-gcc/newlib/libc/stdio/fwalk.c:40
   11cd8:	0089a483          	lw	s1,8(s3)
   11cdc:	0109b403          	ld	s0,16(s3)
   11ce0:	fff4849b          	addiw	s1,s1,-1
   11ce4:	0204c663          	bltz	s1,11d10 <_fwalk+0x70>
/home/lucas/Documents/summerwork2015/riscv-material/riscv-tools/riscv-gnu-toolchain/build/src/newlib-gcc/newlib/libc/stdio/fwalk.c:41
   11ce8:	01041783          	lh	a5,16(s0)
/home/lucas/Documents/summerwork2015/riscv-material/riscv-tools/riscv-gnu-toolchain/build/src/newlib-gcc/newlib/libc/stdio/fwalk.c:40
   11cec:	fff4849b          	addiw	s1,s1,-1
/home/lucas/Documents/summerwork2015/riscv-material/riscv-tools/riscv-gnu-toolchain/build/src/newlib-gcc/newlib/libc/stdio/fwalk.c:41
   11cf0:	00078c63          	beqz	a5,11d08 <_fwalk+0x68>
/home/lucas/Documents/summerwork2015/riscv-material/riscv-tools/riscv-gnu-toolchain/build/src/newlib-gcc/newlib/libc/stdio/fwalk.c:43
   11cf4:	01241783          	lh	a5,18(s0)
/home/lucas/Documents/summerwork2015/riscv-material/riscv-tools/riscv-gnu-toolchain/build/src/newlib-gcc/newlib/libc/stdio/fwalk.c:44
   11cf8:	00040513          	mv	a0,s0
/home/lucas/Documents/summerwork2015/riscv-material/riscv-tools/riscv-gnu-toolchain/build/src/newlib-gcc/newlib/libc/stdio/fwalk.c:43
   11cfc:	01278663          	beq	a5,s2,11d08 <_fwalk+0x68>
/home/lucas/Documents/summerwork2015/riscv-material/riscv-tools/riscv-gnu-toolchain/build/src/newlib-gcc/newlib/libc/stdio/fwalk.c:44
   11d00:	000a80e7          	jalr	s5
   11d04:	00aa6a33          	or	s4,s4,a0
/home/lucas/Documents/summerwork2015/riscv-material/riscv-tools/riscv-gnu-toolchain/build/src/newlib-gcc/newlib/libc/stdio/fwalk.c:40
   11d08:	0a840413          	addi	s0,s0,168
   11d0c:	fd249ee3          	bne	s1,s2,11ce8 <_fwalk+0x48>
/home/lucas/Documents/summerwork2015/riscv-material/riscv-tools/riscv-gnu-toolchain/build/src/newlib-gcc/newlib/libc/stdio/fwalk.c:39
   11d10:	0009b983          	ld	s3,0(s3)
   11d14:	fc0992e3          	bnez	s3,11cd8 <_fwalk+0x38>
_fwalk():
/home/lucas/Documents/summerwork2015/riscv-material/riscv-tools/riscv-gnu-toolchain/build/src/newlib-gcc/newlib/libc/stdio/fwalk.c:85
   11d18:	e6cff0ef          	jal	11384 <__sfp_lock_release>
/home/lucas/Documents/summerwork2015/riscv-material/riscv-tools/riscv-gnu-toolchain/build/src/newlib-gcc/newlib/libc/stdio/fwalk.c:88
   11d1c:	03813083          	ld	ra,56(sp)
   11d20:	000a0513          	mv	a0,s4
   11d24:	03013403          	ld	s0,48(sp)
   11d28:	02813483          	ld	s1,40(sp)
   11d2c:	02013903          	ld	s2,32(sp)
   11d30:	01813983          	ld	s3,24(sp)
   11d34:	01013a03          	ld	s4,16(sp)
   11d38:	00813a83          	ld	s5,8(sp)
   11d3c:	04010113          	addi	sp,sp,64
   11d40:	00008067          	ret

0000000000011d44 <_fwalk_reent>:
_fwalk_reent():
/home/lucas/Documents/summerwork2015/riscv-material/riscv-tools/riscv-gnu-toolchain/build/src/newlib-gcc/newlib/libc/stdio/fwalk.c:96
   11d44:	fc010113          	addi	sp,sp,-64
   11d48:	01313c23          	sd	s3,24(sp)
__fwalk_reent():
/home/lucas/Documents/summerwork2015/riscv-material/riscv-tools/riscv-gnu-toolchain/build/src/newlib-gcc/newlib/libc/stdio/fwalk.c:61
   11d4c:	52050993          	addi	s3,a0,1312
_fwalk_reent():
/home/lucas/Documents/summerwork2015/riscv-material/riscv-tools/riscv-gnu-toolchain/build/src/newlib-gcc/newlib/libc/stdio/fwalk.c:96
   11d50:	01413823          	sd	s4,16(sp)
   11d54:	01513423          	sd	s5,8(sp)
   11d58:	01613023          	sd	s6,0(sp)
   11d5c:	02113c23          	sd	ra,56(sp)
   11d60:	02813823          	sd	s0,48(sp)
   11d64:	02913423          	sd	s1,40(sp)
   11d68:	03213023          	sd	s2,32(sp)
   11d6c:	00050a93          	mv	s5,a0
   11d70:	00058b13          	mv	s6,a1
__fwalk_reent():
/home/lucas/Documents/summerwork2015/riscv-material/riscv-tools/riscv-gnu-toolchain/build/src/newlib-gcc/newlib/libc/stdio/fwalk.c:61
   11d74:	00000a13          	li	s4,0
_fwalk_reent():
/home/lucas/Documents/summerwork2015/riscv-material/riscv-tools/riscv-gnu-toolchain/build/src/newlib-gcc/newlib/libc/stdio/fwalk.c:99
   11d78:	e08ff0ef          	jal	11380 <__sfp_lock_acquire>
__fwalk_reent():
/home/lucas/Documents/summerwork2015/riscv-material/riscv-tools/riscv-gnu-toolchain/build/src/newlib-gcc/newlib/libc/stdio/fwalk.c:61
   11d7c:	04098663          	beqz	s3,11dc8 <_fwalk_reent+0x84>
/home/lucas/Documents/summerwork2015/riscv-material/riscv-tools/riscv-gnu-toolchain/build/src/newlib-gcc/newlib/libc/stdio/fwalk.c:65
   11d80:	fff00913          	li	s2,-1
/home/lucas/Documents/summerwork2015/riscv-material/riscv-tools/riscv-gnu-toolchain/build/src/newlib-gcc/newlib/libc/stdio/fwalk.c:62
   11d84:	0089a483          	lw	s1,8(s3)
   11d88:	0109b403          	ld	s0,16(s3)
   11d8c:	fff4849b          	addiw	s1,s1,-1
   11d90:	0204c863          	bltz	s1,11dc0 <_fwalk_reent+0x7c>
/home/lucas/Documents/summerwork2015/riscv-material/riscv-tools/riscv-gnu-toolchain/build/src/newlib-gcc/newlib/libc/stdio/fwalk.c:63
   11d94:	01041783          	lh	a5,16(s0)
/home/lucas/Documents/summerwork2015/riscv-material/riscv-tools/riscv-gnu-toolchain/build/src/newlib-gcc/newlib/libc/stdio/fwalk.c:62
   11d98:	fff4849b          	addiw	s1,s1,-1
/home/lucas/Documents/summerwork2015/riscv-material/riscv-tools/riscv-gnu-toolchain/build/src/newlib-gcc/newlib/libc/stdio/fwalk.c:63
   11d9c:	00078e63          	beqz	a5,11db8 <_fwalk_reent+0x74>
/home/lucas/Documents/summerwork2015/riscv-material/riscv-tools/riscv-gnu-toolchain/build/src/newlib-gcc/newlib/libc/stdio/fwalk.c:65
   11da0:	01241783          	lh	a5,18(s0)
/home/lucas/Documents/summerwork2015/riscv-material/riscv-tools/riscv-gnu-toolchain/build/src/newlib-gcc/newlib/libc/stdio/fwalk.c:66
   11da4:	00040593          	mv	a1,s0
   11da8:	000a8513          	mv	a0,s5
/home/lucas/Documents/summerwork2015/riscv-material/riscv-tools/riscv-gnu-toolchain/build/src/newlib-gcc/newlib/libc/stdio/fwalk.c:65
   11dac:	01278663          	beq	a5,s2,11db8 <_fwalk_reent+0x74>
/home/lucas/Documents/summerwork2015/riscv-material/riscv-tools/riscv-gnu-toolchain/build/src/newlib-gcc/newlib/libc/stdio/fwalk.c:66
   11db0:	000b00e7          	jalr	s6
   11db4:	00aa6a33          	or	s4,s4,a0
/home/lucas/Documents/summerwork2015/riscv-material/riscv-tools/riscv-gnu-toolchain/build/src/newlib-gcc/newlib/libc/stdio/fwalk.c:62
   11db8:	0a840413          	addi	s0,s0,168
   11dbc:	fd249ce3          	bne	s1,s2,11d94 <_fwalk_reent+0x50>
/home/lucas/Documents/summerwork2015/riscv-material/riscv-tools/riscv-gnu-toolchain/build/src/newlib-gcc/newlib/libc/stdio/fwalk.c:61
   11dc0:	0009b983          	ld	s3,0(s3)
   11dc4:	fc0990e3          	bnez	s3,11d84 <_fwalk_reent+0x40>
_fwalk_reent():
/home/lucas/Documents/summerwork2015/riscv-material/riscv-tools/riscv-gnu-toolchain/build/src/newlib-gcc/newlib/libc/stdio/fwalk.c:105
   11dc8:	dbcff0ef          	jal	11384 <__sfp_lock_release>
/home/lucas/Documents/summerwork2015/riscv-material/riscv-tools/riscv-gnu-toolchain/build/src/newlib-gcc/newlib/libc/stdio/fwalk.c:108
   11dcc:	03813083          	ld	ra,56(sp)
   11dd0:	000a0513          	mv	a0,s4
   11dd4:	03013403          	ld	s0,48(sp)
   11dd8:	02813483          	ld	s1,40(sp)
   11ddc:	02013903          	ld	s2,32(sp)
   11de0:	01813983          	ld	s3,24(sp)
   11de4:	01013a03          	ld	s4,16(sp)
   11de8:	00813a83          	ld	s5,8(sp)
   11dec:	00013b03          	ld	s6,0(sp)
   11df0:	04010113          	addi	sp,sp,64
   11df4:	00008067          	ret

0000000000011df8 <memchr>:
memchr():
/home/lucas/Documents/summerwork2015/riscv-material/riscv-tools/riscv-gnu-toolchain/build/src/newlib-gcc/newlib/libc/string/memchr.c:85
   11df8:	00757793          	andi	a5,a0,7
/home/lucas/Documents/summerwork2015/riscv-material/riscv-tools/riscv-gnu-toolchain/build/src/newlib-gcc/newlib/libc/string/memchr.c:78
   11dfc:	0ff5f813          	andi	a6,a1,255
/home/lucas/Documents/summerwork2015/riscv-material/riscv-tools/riscv-gnu-toolchain/build/src/newlib-gcc/newlib/libc/string/memchr.c:85
   11e00:	0c078663          	beqz	a5,11ecc <memchr+0xd4>
/home/lucas/Documents/summerwork2015/riscv-material/riscv-tools/riscv-gnu-toolchain/build/src/newlib-gcc/newlib/libc/string/memchr.c:87
   11e04:	fff60793          	addi	a5,a2,-1
   11e08:	06060463          	beqz	a2,11e70 <memchr+0x78>
/home/lucas/Documents/summerwork2015/riscv-material/riscv-tools/riscv-gnu-toolchain/build/src/newlib-gcc/newlib/libc/string/memchr.c:89
   11e0c:	00054703          	lbu	a4,0(a0)
   11e10:	07070263          	beq	a4,a6,11e74 <memchr+0x7c>
   11e14:	00080693          	mv	a3,a6
   11e18:	0140006f          	j	11e2c <memchr+0x34>
/home/lucas/Documents/summerwork2015/riscv-material/riscv-tools/riscv-gnu-toolchain/build/src/newlib-gcc/newlib/libc/string/memchr.c:87
   11e1c:	04078a63          	beqz	a5,11e70 <memchr+0x78>
/home/lucas/Documents/summerwork2015/riscv-material/riscv-tools/riscv-gnu-toolchain/build/src/newlib-gcc/newlib/libc/string/memchr.c:89
   11e20:	00054703          	lbu	a4,0(a0)
   11e24:	fff78793          	addi	a5,a5,-1
   11e28:	04d70663          	beq	a4,a3,11e74 <memchr+0x7c>
/home/lucas/Documents/summerwork2015/riscv-material/riscv-tools/riscv-gnu-toolchain/build/src/newlib-gcc/newlib/libc/string/memchr.c:91
   11e2c:	00150513          	addi	a0,a0,1
/home/lucas/Documents/summerwork2015/riscv-material/riscv-tools/riscv-gnu-toolchain/build/src/newlib-gcc/newlib/libc/string/memchr.c:85
   11e30:	00757713          	andi	a4,a0,7
   11e34:	fe0714e3          	bnez	a4,11e1c <memchr+0x24>
/home/lucas/Documents/summerwork2015/riscv-material/riscv-tools/riscv-gnu-toolchain/build/src/newlib-gcc/newlib/libc/string/memchr.c:94
   11e38:	00700613          	li	a2,7
   11e3c:	02f66e63          	bltu	a2,a5,11e78 <memchr+0x80>
/home/lucas/Documents/summerwork2015/riscv-material/riscv-tools/riscv-gnu-toolchain/build/src/newlib-gcc/newlib/libc/string/memchr.c:126
   11e40:	02078863          	beqz	a5,11e70 <memchr+0x78>
/home/lucas/Documents/summerwork2015/riscv-material/riscv-tools/riscv-gnu-toolchain/build/src/newlib-gcc/newlib/libc/string/memchr.c:128
   11e44:	00054703          	lbu	a4,0(a0)
   11e48:	03070663          	beq	a4,a6,11e74 <memchr+0x7c>
   11e4c:	00150713          	addi	a4,a0,1
   11e50:	00f507b3          	add	a5,a0,a5
   11e54:	00080613          	mv	a2,a6
   11e58:	0100006f          	j	11e68 <memchr+0x70>
   11e5c:	00170713          	addi	a4,a4,1
   11e60:	fff74683          	lbu	a3,-1(a4)
   11e64:	00c68863          	beq	a3,a2,11e74 <memchr+0x7c>
/home/lucas/Documents/summerwork2015/riscv-material/riscv-tools/riscv-gnu-toolchain/build/src/newlib-gcc/newlib/libc/string/memchr.c:130
   11e68:	00070513          	mv	a0,a4
/home/lucas/Documents/summerwork2015/riscv-material/riscv-tools/riscv-gnu-toolchain/build/src/newlib-gcc/newlib/libc/string/memchr.c:126
   11e6c:	fee798e3          	bne	a5,a4,11e5c <memchr+0x64>
/home/lucas/Documents/summerwork2015/riscv-material/riscv-tools/riscv-gnu-toolchain/build/src/newlib-gcc/newlib/libc/string/memchr.c:88
   11e70:	00000513          	li	a0,0
/home/lucas/Documents/summerwork2015/riscv-material/riscv-tools/riscv-gnu-toolchain/build/src/newlib-gcc/newlib/libc/string/memchr.c:134
   11e74:	00008067          	ret
   11e78:	0ff5f593          	andi	a1,a1,255
/home/lucas/Documents/summerwork2015/riscv-material/riscv-tools/riscv-gnu-toolchain/build/src/newlib-gcc/newlib/libc/string/memchr.c:105
   11e7c:	0085971b          	slliw	a4,a1,0x8
   11e80:	00b765b3          	or	a1,a4,a1
   11e84:	00058713          	mv	a4,a1
/home/lucas/Documents/summerwork2015/riscv-material/riscv-tools/riscv-gnu-toolchain/build/src/newlib-gcc/newlib/libc/string/memchr.c:106
   11e88:	01071593          	slli	a1,a4,0x10
   11e8c:	00b76733          	or	a4,a4,a1
/home/lucas/Documents/summerwork2015/riscv-material/riscv-tools/riscv-gnu-toolchain/build/src/newlib-gcc/newlib/libc/string/memchr.c:112
   11e90:	8301b283          	ld	t0,-2000(gp) # 14ea0 <__malloc_trim_threshold+0x10>
   11e94:	8381b883          	ld	a7,-1992(gp) # 14ea8 <__malloc_trim_threshold+0x18>
/home/lucas/Documents/summerwork2015/riscv-material/riscv-tools/riscv-gnu-toolchain/build/src/newlib-gcc/newlib/libc/string/memchr.c:108
   11e98:	02071693          	slli	a3,a4,0x20
   11e9c:	00d765b3          	or	a1,a4,a3
/home/lucas/Documents/summerwork2015/riscv-material/riscv-tools/riscv-gnu-toolchain/build/src/newlib-gcc/newlib/libc/string/memchr.c:112
   11ea0:	00053703          	ld	a4,0(a0)
   11ea4:	00e5c733          	xor	a4,a1,a4
   11ea8:	005706b3          	add	a3,a4,t0
   11eac:	fff74713          	not	a4,a4
   11eb0:	00e6f733          	and	a4,a3,a4
   11eb4:	01177733          	and	a4,a4,a7
   11eb8:	f80716e3          	bnez	a4,11e44 <memchr+0x4c>
/home/lucas/Documents/summerwork2015/riscv-material/riscv-tools/riscv-gnu-toolchain/build/src/newlib-gcc/newlib/libc/string/memchr.c:114
   11ebc:	ff878793          	addi	a5,a5,-8
/home/lucas/Documents/summerwork2015/riscv-material/riscv-tools/riscv-gnu-toolchain/build/src/newlib-gcc/newlib/libc/string/memchr.c:115
   11ec0:	00850513          	addi	a0,a0,8
/home/lucas/Documents/summerwork2015/riscv-material/riscv-tools/riscv-gnu-toolchain/build/src/newlib-gcc/newlib/libc/string/memchr.c:110
   11ec4:	fcf66ee3          	bltu	a2,a5,11ea0 <memchr+0xa8>
   11ec8:	f79ff06f          	j	11e40 <memchr+0x48>
/home/lucas/Documents/summerwork2015/riscv-material/riscv-tools/riscv-gnu-toolchain/build/src/newlib-gcc/newlib/libc/string/memchr.c:85
   11ecc:	00060793          	mv	a5,a2
   11ed0:	f69ff06f          	j	11e38 <memchr+0x40>

0000000000011ed4 <memcpy>:
memcpy():
/home/lucas/Documents/summerwork2015/riscv-material/riscv-tools/riscv-gnu-toolchain/build/src/newlib-gcc/newlib/libc/machine/riscv/memcpy.c:16
   11ed4:	00a5c7b3          	xor	a5,a1,a0
   11ed8:	0077f793          	andi	a5,a5,7
/home/lucas/Documents/summerwork2015/riscv-material/riscv-tools/riscv-gnu-toolchain/build/src/newlib-gcc/newlib/libc/machine/riscv/memcpy.c:14
   11edc:	00c508b3          	add	a7,a0,a2
/home/lucas/Documents/summerwork2015/riscv-material/riscv-tools/riscv-gnu-toolchain/build/src/newlib-gcc/newlib/libc/machine/riscv/memcpy.c:16
   11ee0:	0e079263          	bnez	a5,11fc4 <memcpy+0xf0>
/home/lucas/Documents/summerwork2015/riscv-material/riscv-tools/riscv-gnu-toolchain/build/src/newlib-gcc/newlib/libc/machine/riscv/memcpy.c:16 (discriminator 1)
   11ee4:	00700793          	li	a5,7
   11ee8:	0ec7fe63          	bleu	a2,a5,11fe4 <memcpy+0x110>
/home/lucas/Documents/summerwork2015/riscv-material/riscv-tools/riscv-gnu-toolchain/build/src/newlib-gcc/newlib/libc/machine/riscv/memcpy.c:25
   11eec:	00757793          	andi	a5,a0,7
   11ef0:	04079a63          	bnez	a5,11f44 <memcpy+0x70>
/home/lucas/Documents/summerwork2015/riscv-material/riscv-tools/riscv-gnu-toolchain/build/src/newlib-gcc/newlib/libc/machine/riscv/memcpy.c:31
   11ef4:	ff88f813          	andi	a6,a7,-8
/home/lucas/Documents/summerwork2015/riscv-material/riscv-tools/riscv-gnu-toolchain/build/src/newlib-gcc/newlib/libc/machine/riscv/memcpy.c:33
   11ef8:	fc080793          	addi	a5,a6,-64
   11efc:	00050713          	mv	a4,a0
   11f00:	06f56663          	bltu	a0,a5,11f6c <memcpy+0x98>
/home/lucas/Documents/summerwork2015/riscv-material/riscv-tools/riscv-gnu-toolchain/build/src/newlib-gcc/newlib/libc/machine/riscv/memcpy.c:58
   11f04:	00058693          	mv	a3,a1
   11f08:	00070793          	mv	a5,a4
   11f0c:	03077863          	bleu	a6,a4,11f3c <memcpy+0x68>
/home/lucas/Documents/summerwork2015/riscv-material/riscv-tools/riscv-gnu-toolchain/build/src/newlib-gcc/newlib/libc/machine/riscv/memcpy.c:59
   11f10:	0006b603          	ld	a2,0(a3)
   11f14:	00878793          	addi	a5,a5,8
   11f18:	00868693          	addi	a3,a3,8
   11f1c:	fec7bc23          	sd	a2,-8(a5)
/home/lucas/Documents/summerwork2015/riscv-material/riscv-tools/riscv-gnu-toolchain/build/src/newlib-gcc/newlib/libc/machine/riscv/memcpy.c:58
   11f20:	ff07e8e3          	bltu	a5,a6,11f10 <memcpy+0x3c>
   11f24:	fff74793          	not	a5,a4
   11f28:	01078833          	add	a6,a5,a6
   11f2c:	ff887813          	andi	a6,a6,-8
   11f30:	00880813          	addi	a6,a6,8
   11f34:	01070733          	add	a4,a4,a6
   11f38:	010585b3          	add	a1,a1,a6
/home/lucas/Documents/summerwork2015/riscv-material/riscv-tools/riscv-gnu-toolchain/build/src/newlib-gcc/newlib/libc/machine/riscv/memcpy.c:63
   11f3c:	09176863          	bltu	a4,a7,11fcc <memcpy+0xf8>
/home/lucas/Documents/summerwork2015/riscv-material/riscv-tools/riscv-gnu-toolchain/build/src/newlib-gcc/newlib/libc/machine/riscv/memcpy.c:66
   11f40:	00008067          	ret
   11f44:	00050713          	mv	a4,a0
/home/lucas/Documents/summerwork2015/riscv-material/riscv-tools/riscv-gnu-toolchain/build/src/newlib-gcc/newlib/libc/machine/riscv/memcpy.c:27
   11f48:	0005c683          	lbu	a3,0(a1)
   11f4c:	00170713          	addi	a4,a4,1
/home/lucas/Documents/summerwork2015/riscv-material/riscv-tools/riscv-gnu-toolchain/build/src/newlib-gcc/newlib/libc/machine/riscv/memcpy.c:26
   11f50:	00777793          	andi	a5,a4,7
/home/lucas/Documents/summerwork2015/riscv-material/riscv-tools/riscv-gnu-toolchain/build/src/newlib-gcc/newlib/libc/machine/riscv/memcpy.c:27
   11f54:	00158593          	addi	a1,a1,1
   11f58:	fed70fa3          	sb	a3,-1(a4)
/home/lucas/Documents/summerwork2015/riscv-material/riscv-tools/riscv-gnu-toolchain/build/src/newlib-gcc/newlib/libc/machine/riscv/memcpy.c:26
   11f5c:	fe0796e3          	bnez	a5,11f48 <memcpy+0x74>
/home/lucas/Documents/summerwork2015/riscv-material/riscv-tools/riscv-gnu-toolchain/build/src/newlib-gcc/newlib/libc/machine/riscv/memcpy.c:31
   11f60:	ff88f813          	andi	a6,a7,-8
/home/lucas/Documents/summerwork2015/riscv-material/riscv-tools/riscv-gnu-toolchain/build/src/newlib-gcc/newlib/libc/machine/riscv/memcpy.c:33
   11f64:	fc080793          	addi	a5,a6,-64
   11f68:	f8f77ee3          	bleu	a5,a4,11f04 <memcpy+0x30>
/home/lucas/Documents/summerwork2015/riscv-material/riscv-tools/riscv-gnu-toolchain/build/src/newlib-gcc/newlib/libc/machine/riscv/memcpy.c:37
   11f6c:	0005bf83          	ld	t6,0(a1)
/home/lucas/Documents/summerwork2015/riscv-material/riscv-tools/riscv-gnu-toolchain/build/src/newlib-gcc/newlib/libc/machine/riscv/memcpy.c:38
   11f70:	0085bf03          	ld	t5,8(a1)
/home/lucas/Documents/summerwork2015/riscv-material/riscv-tools/riscv-gnu-toolchain/build/src/newlib-gcc/newlib/libc/machine/riscv/memcpy.c:39
   11f74:	0105be83          	ld	t4,16(a1)
/home/lucas/Documents/summerwork2015/riscv-material/riscv-tools/riscv-gnu-toolchain/build/src/newlib-gcc/newlib/libc/machine/riscv/memcpy.c:40
   11f78:	0185be03          	ld	t3,24(a1)
/home/lucas/Documents/summerwork2015/riscv-material/riscv-tools/riscv-gnu-toolchain/build/src/newlib-gcc/newlib/libc/machine/riscv/memcpy.c:41
   11f7c:	0205b383          	ld	t2,32(a1)
/home/lucas/Documents/summerwork2015/riscv-material/riscv-tools/riscv-gnu-toolchain/build/src/newlib-gcc/newlib/libc/machine/riscv/memcpy.c:42
   11f80:	0285b303          	ld	t1,40(a1)
/home/lucas/Documents/summerwork2015/riscv-material/riscv-tools/riscv-gnu-toolchain/build/src/newlib-gcc/newlib/libc/machine/riscv/memcpy.c:43
   11f84:	0305b283          	ld	t0,48(a1)
/home/lucas/Documents/summerwork2015/riscv-material/riscv-tools/riscv-gnu-toolchain/build/src/newlib-gcc/newlib/libc/machine/riscv/memcpy.c:44
   11f88:	0385b603          	ld	a2,56(a1)
   11f8c:	04858593          	addi	a1,a1,72
   11f90:	04870713          	addi	a4,a4,72
/home/lucas/Documents/summerwork2015/riscv-material/riscv-tools/riscv-gnu-toolchain/build/src/newlib-gcc/newlib/libc/machine/riscv/memcpy.c:45
   11f94:	ff85b683          	ld	a3,-8(a1)
/home/lucas/Documents/summerwork2015/riscv-material/riscv-tools/riscv-gnu-toolchain/build/src/newlib-gcc/newlib/libc/machine/riscv/memcpy.c:46
   11f98:	fbf73c23          	sd	t6,-72(a4)
/home/lucas/Documents/summerwork2015/riscv-material/riscv-tools/riscv-gnu-toolchain/build/src/newlib-gcc/newlib/libc/machine/riscv/memcpy.c:47
   11f9c:	fde73023          	sd	t5,-64(a4)
/home/lucas/Documents/summerwork2015/riscv-material/riscv-tools/riscv-gnu-toolchain/build/src/newlib-gcc/newlib/libc/machine/riscv/memcpy.c:48
   11fa0:	fdd73423          	sd	t4,-56(a4)
/home/lucas/Documents/summerwork2015/riscv-material/riscv-tools/riscv-gnu-toolchain/build/src/newlib-gcc/newlib/libc/machine/riscv/memcpy.c:49
   11fa4:	fdc73823          	sd	t3,-48(a4)
/home/lucas/Documents/summerwork2015/riscv-material/riscv-tools/riscv-gnu-toolchain/build/src/newlib-gcc/newlib/libc/machine/riscv/memcpy.c:50
   11fa8:	fc773c23          	sd	t2,-40(a4)
/home/lucas/Documents/summerwork2015/riscv-material/riscv-tools/riscv-gnu-toolchain/build/src/newlib-gcc/newlib/libc/machine/riscv/memcpy.c:51
   11fac:	fe673023          	sd	t1,-32(a4)
/home/lucas/Documents/summerwork2015/riscv-material/riscv-tools/riscv-gnu-toolchain/build/src/newlib-gcc/newlib/libc/machine/riscv/memcpy.c:52
   11fb0:	fe573423          	sd	t0,-24(a4)
/home/lucas/Documents/summerwork2015/riscv-material/riscv-tools/riscv-gnu-toolchain/build/src/newlib-gcc/newlib/libc/machine/riscv/memcpy.c:53
   11fb4:	fec73823          	sd	a2,-16(a4)
/home/lucas/Documents/summerwork2015/riscv-material/riscv-tools/riscv-gnu-toolchain/build/src/newlib-gcc/newlib/libc/machine/riscv/memcpy.c:54
   11fb8:	fed73c23          	sd	a3,-8(a4)
/home/lucas/Documents/summerwork2015/riscv-material/riscv-tools/riscv-gnu-toolchain/build/src/newlib-gcc/newlib/libc/machine/riscv/memcpy.c:35
   11fbc:	faf768e3          	bltu	a4,a5,11f6c <memcpy+0x98>
   11fc0:	f45ff06f          	j	11f04 <memcpy+0x30>
/home/lucas/Documents/summerwork2015/riscv-material/riscv-tools/riscv-gnu-toolchain/build/src/newlib-gcc/newlib/libc/machine/riscv/memcpy.c:19
   11fc4:	00050713          	mv	a4,a0
   11fc8:	03157463          	bleu	a7,a0,11ff0 <memcpy+0x11c>
/home/lucas/Documents/summerwork2015/riscv-material/riscv-tools/riscv-gnu-toolchain/build/src/newlib-gcc/newlib/libc/machine/riscv/memcpy.c:21
   11fcc:	0005c783          	lbu	a5,0(a1)
   11fd0:	00170713          	addi	a4,a4,1
   11fd4:	00158593          	addi	a1,a1,1
   11fd8:	fef70fa3          	sb	a5,-1(a4)
/home/lucas/Documents/summerwork2015/riscv-material/riscv-tools/riscv-gnu-toolchain/build/src/newlib-gcc/newlib/libc/machine/riscv/memcpy.c:20
   11fdc:	ff1768e3          	bltu	a4,a7,11fcc <memcpy+0xf8>
   11fe0:	00008067          	ret
   11fe4:	00050713          	mv	a4,a0
/home/lucas/Documents/summerwork2015/riscv-material/riscv-tools/riscv-gnu-toolchain/build/src/newlib-gcc/newlib/libc/machine/riscv/memcpy.c:19
   11fe8:	ff1562e3          	bltu	a0,a7,11fcc <memcpy+0xf8>
   11fec:	f55ff06f          	j	11f40 <memcpy+0x6c>
   11ff0:	00008067          	ret

0000000000011ff4 <memmove>:
memmove():
/home/lucas/Documents/summerwork2015/riscv-material/riscv-tools/riscv-gnu-toolchain/build/src/newlib-gcc/newlib/libc/string/memmove.c:91
   11ff4:	0006061b          	sext.w	a2,a2
   11ff8:	00060693          	mv	a3,a2
/home/lucas/Documents/summerwork2015/riscv-material/riscv-tools/riscv-gnu-toolchain/build/src/newlib-gcc/newlib/libc/string/memmove.c:93
   11ffc:	02a5fe63          	bleu	a0,a1,12038 <memmove+0x44>
/home/lucas/Documents/summerwork2015/riscv-material/riscv-tools/riscv-gnu-toolchain/build/src/newlib-gcc/newlib/libc/string/memmove.c:93 (discriminator 1)
   12000:	00060793          	mv	a5,a2
   12004:	00f58733          	add	a4,a1,a5
   12008:	02e57863          	bleu	a4,a0,12038 <memmove+0x44>
/home/lucas/Documents/summerwork2015/riscv-material/riscv-tools/riscv-gnu-toolchain/build/src/newlib-gcc/newlib/libc/string/memmove.c:97
   1200c:	00f507b3          	add	a5,a0,a5
/home/lucas/Documents/summerwork2015/riscv-material/riscv-tools/riscv-gnu-toolchain/build/src/newlib-gcc/newlib/libc/string/memmove.c:98
   12010:	fff6069b          	addiw	a3,a2,-1
   12014:	fff00593          	li	a1,-1
   12018:	04060863          	beqz	a2,12068 <memmove+0x74>
/home/lucas/Documents/summerwork2015/riscv-material/riscv-tools/riscv-gnu-toolchain/build/src/newlib-gcc/newlib/libc/string/memmove.c:100
   1201c:	fff70713          	addi	a4,a4,-1
   12020:	00074603          	lbu	a2,0(a4)
   12024:	fff78793          	addi	a5,a5,-1
/home/lucas/Documents/summerwork2015/riscv-material/riscv-tools/riscv-gnu-toolchain/build/src/newlib-gcc/newlib/libc/string/memmove.c:98
   12028:	fff6869b          	addiw	a3,a3,-1
/home/lucas/Documents/summerwork2015/riscv-material/riscv-tools/riscv-gnu-toolchain/build/src/newlib-gcc/newlib/libc/string/memmove.c:100
   1202c:	00c78023          	sb	a2,0(a5)
/home/lucas/Documents/summerwork2015/riscv-material/riscv-tools/riscv-gnu-toolchain/build/src/newlib-gcc/newlib/libc/string/memmove.c:98
   12030:	feb696e3          	bne	a3,a1,1201c <memmove+0x28>
   12034:	00008067          	ret
/home/lucas/Documents/summerwork2015/riscv-material/riscv-tools/riscv-gnu-toolchain/build/src/newlib-gcc/newlib/libc/string/memmove.c:108
   12038:	01f00293          	li	t0,31
   1203c:	00050793          	mv	a5,a0
   12040:	02c2e663          	bltu	t0,a2,1206c <memmove+0x78>
/home/lucas/Documents/summerwork2015/riscv-material/riscv-tools/riscv-gnu-toolchain/build/src/newlib-gcc/newlib/libc/string/memmove.c:135
   12044:	fff6871b          	addiw	a4,a3,-1
   12048:	02068063          	beqz	a3,12068 <memmove+0x74>
   1204c:	fff00613          	li	a2,-1
/home/lucas/Documents/summerwork2015/riscv-material/riscv-tools/riscv-gnu-toolchain/build/src/newlib-gcc/newlib/libc/string/memmove.c:137
   12050:	00158593          	addi	a1,a1,1
   12054:	fff5c683          	lbu	a3,-1(a1)
   12058:	00178793          	addi	a5,a5,1
/home/lucas/Documents/summerwork2015/riscv-material/riscv-tools/riscv-gnu-toolchain/build/src/newlib-gcc/newlib/libc/string/memmove.c:135
   1205c:	fff7071b          	addiw	a4,a4,-1
/home/lucas/Documents/summerwork2015/riscv-material/riscv-tools/riscv-gnu-toolchain/build/src/newlib-gcc/newlib/libc/string/memmove.c:137
   12060:	fed78fa3          	sb	a3,-1(a5)
/home/lucas/Documents/summerwork2015/riscv-material/riscv-tools/riscv-gnu-toolchain/build/src/newlib-gcc/newlib/libc/string/memmove.c:135
   12064:	fec716e3          	bne	a4,a2,12050 <memmove+0x5c>
/home/lucas/Documents/summerwork2015/riscv-material/riscv-tools/riscv-gnu-toolchain/build/src/newlib-gcc/newlib/libc/string/memmove.c:143
   12068:	00008067          	ret
/home/lucas/Documents/summerwork2015/riscv-material/riscv-tools/riscv-gnu-toolchain/build/src/newlib-gcc/newlib/libc/string/memmove.c:108 (discriminator 1)
   1206c:	00a5e733          	or	a4,a1,a0
   12070:	00777713          	andi	a4,a4,7
   12074:	fc0718e3          	bnez	a4,12044 <memmove+0x50>
   12078:	00060813          	mv	a6,a2
   1207c:	00058713          	mv	a4,a1
/home/lucas/Documents/summerwork2015/riscv-material/riscv-tools/riscv-gnu-toolchain/build/src/newlib-gcc/newlib/libc/string/memmove.c:116
   12080:	00073683          	ld	a3,0(a4)
   12084:	02078793          	addi	a5,a5,32
   12088:	02070713          	addi	a4,a4,32
   1208c:	fed7b023          	sd	a3,-32(a5)
/home/lucas/Documents/summerwork2015/riscv-material/riscv-tools/riscv-gnu-toolchain/build/src/newlib-gcc/newlib/libc/string/memmove.c:117
   12090:	fe873883          	ld	a7,-24(a4)
/home/lucas/Documents/summerwork2015/riscv-material/riscv-tools/riscv-gnu-toolchain/build/src/newlib-gcc/newlib/libc/string/memmove.c:120
   12094:	fe08069b          	addiw	a3,a6,-32
   12098:	00068813          	mv	a6,a3
/home/lucas/Documents/summerwork2015/riscv-material/riscv-tools/riscv-gnu-toolchain/build/src/newlib-gcc/newlib/libc/string/memmove.c:117
   1209c:	ff17b423          	sd	a7,-24(a5)
/home/lucas/Documents/summerwork2015/riscv-material/riscv-tools/riscv-gnu-toolchain/build/src/newlib-gcc/newlib/libc/string/memmove.c:118
   120a0:	ff073883          	ld	a7,-16(a4)
   120a4:	ff17b823          	sd	a7,-16(a5)
/home/lucas/Documents/summerwork2015/riscv-material/riscv-tools/riscv-gnu-toolchain/build/src/newlib-gcc/newlib/libc/string/memmove.c:119
   120a8:	ff873883          	ld	a7,-8(a4)
   120ac:	ff17bc23          	sd	a7,-8(a5)
/home/lucas/Documents/summerwork2015/riscv-material/riscv-tools/riscv-gnu-toolchain/build/src/newlib-gcc/newlib/libc/string/memmove.c:114
   120b0:	fcd2e8e3          	bltu	t0,a3,12080 <memmove+0x8c>
   120b4:	fe06061b          	addiw	a2,a2,-32
   120b8:	0056571b          	srliw	a4,a2,0x5
   120bc:	02071693          	slli	a3,a4,0x20
   120c0:	0206d693          	srli	a3,a3,0x20
   120c4:	00168693          	addi	a3,a3,1
   120c8:	0057171b          	slliw	a4,a4,0x5
   120cc:	00569693          	slli	a3,a3,0x5
   120d0:	40e6073b          	subw	a4,a2,a4
/home/lucas/Documents/summerwork2015/riscv-material/riscv-tools/riscv-gnu-toolchain/build/src/newlib-gcc/newlib/libc/string/memmove.c:124
   120d4:	00700613          	li	a2,7
   120d8:	00d507b3          	add	a5,a0,a3
   120dc:	00d585b3          	add	a1,a1,a3
   120e0:	00070693          	mv	a3,a4
   120e4:	f6e650e3          	ble	a4,a2,12044 <memmove+0x50>
/home/lucas/Documents/summerwork2015/riscv-material/riscv-tools/riscv-gnu-toolchain/build/src/newlib-gcc/newlib/libc/string/memmove.c:126
   120e8:	00858593          	addi	a1,a1,8
   120ec:	ff85b683          	ld	a3,-8(a1)
/home/lucas/Documents/summerwork2015/riscv-material/riscv-tools/riscv-gnu-toolchain/build/src/newlib-gcc/newlib/libc/string/memmove.c:127
   120f0:	ff87071b          	addiw	a4,a4,-8
/home/lucas/Documents/summerwork2015/riscv-material/riscv-tools/riscv-gnu-toolchain/build/src/newlib-gcc/newlib/libc/string/memmove.c:126
   120f4:	00878793          	addi	a5,a5,8
   120f8:	fed7bc23          	sd	a3,-8(a5)
/home/lucas/Documents/summerwork2015/riscv-material/riscv-tools/riscv-gnu-toolchain/build/src/newlib-gcc/newlib/libc/string/memmove.c:127
   120fc:	00070693          	mv	a3,a4
/home/lucas/Documents/summerwork2015/riscv-material/riscv-tools/riscv-gnu-toolchain/build/src/newlib-gcc/newlib/libc/string/memmove.c:124
   12100:	fee664e3          	bltu	a2,a4,120e8 <memmove+0xf4>
   12104:	f41ff06f          	j	12044 <memmove+0x50>

0000000000012108 <memset>:
memset():
   12108:	00f00813          	li	a6,15
   1210c:	00050713          	mv	a4,a0
   12110:	02c87a63          	bleu	a2,a6,12144 <memset+0x3c>
   12114:	00f77793          	andi	a5,a4,15
   12118:	0a079063          	bnez	a5,121b8 <memset+0xb0>
   1211c:	06059e63          	bnez	a1,12198 <memset+0x90>
   12120:	ff067693          	andi	a3,a2,-16
   12124:	00f67613          	andi	a2,a2,15
   12128:	00e686b3          	add	a3,a3,a4
   1212c:	00b73023          	sd	a1,0(a4)
   12130:	00b73423          	sd	a1,8(a4)
   12134:	01070713          	addi	a4,a4,16
   12138:	fed76ae3          	bltu	a4,a3,1212c <memset+0x24>
   1213c:	00061463          	bnez	a2,12144 <memset+0x3c>
   12140:	00008067          	ret
   12144:	40c806b3          	sub	a3,a6,a2
   12148:	00269693          	slli	a3,a3,0x2
   1214c:	00000297          	auipc	t0,0x0
   12150:	005686b3          	add	a3,a3,t0
   12154:	00c68067          	jr	a3,12
   12158:	00b70723          	sb	a1,14(a4)
   1215c:	00b706a3          	sb	a1,13(a4)
   12160:	00b70623          	sb	a1,12(a4)
   12164:	00b705a3          	sb	a1,11(a4)
   12168:	00b70523          	sb	a1,10(a4)
   1216c:	00b704a3          	sb	a1,9(a4)
   12170:	00b70423          	sb	a1,8(a4)
   12174:	00b703a3          	sb	a1,7(a4)
   12178:	00b70323          	sb	a1,6(a4)
   1217c:	00b702a3          	sb	a1,5(a4)
   12180:	00b70223          	sb	a1,4(a4)
   12184:	00b701a3          	sb	a1,3(a4)
   12188:	00b70123          	sb	a1,2(a4)
   1218c:	00b700a3          	sb	a1,1(a4)
   12190:	00b70023          	sb	a1,0(a4)
   12194:	00008067          	ret
   12198:	0ff5f593          	andi	a1,a1,255
   1219c:	00859693          	slli	a3,a1,0x8
   121a0:	00d5e5b3          	or	a1,a1,a3
   121a4:	01059693          	slli	a3,a1,0x10
   121a8:	00d5e5b3          	or	a1,a1,a3
   121ac:	02059693          	slli	a3,a1,0x20
   121b0:	00d5e5b3          	or	a1,a1,a3
   121b4:	f6dff06f          	j	12120 <memset+0x18>
   121b8:	00279693          	slli	a3,a5,0x2
   121bc:	00000297          	auipc	t0,0x0
   121c0:	005686b3          	add	a3,a3,t0
   121c4:	00008293          	mv	t0,ra
   121c8:	f98680e7          	jalr	a3,-104
   121cc:	00028093          	mv	ra,t0
   121d0:	ff078793          	addi	a5,a5,-16
   121d4:	40f70733          	sub	a4,a4,a5
   121d8:	00f60633          	add	a2,a2,a5
   121dc:	f6c874e3          	bleu	a2,a6,12144 <memset+0x3c>
   121e0:	f3dff06f          	j	1211c <memset+0x14>

00000000000121e4 <_realloc_r>:
_realloc_r():
/home/lucas/Documents/summerwork2015/riscv-material/riscv-tools/riscv-gnu-toolchain/build/src/newlib-gcc/newlib/libc/stdlib/mallocr.c:2767
   121e4:	fb010113          	addi	sp,sp,-80
   121e8:	02913c23          	sd	s1,56(sp)
   121ec:	04113423          	sd	ra,72(sp)
   121f0:	04813023          	sd	s0,64(sp)
   121f4:	03213823          	sd	s2,48(sp)
   121f8:	03313423          	sd	s3,40(sp)
   121fc:	03413023          	sd	s4,32(sp)
   12200:	01513c23          	sd	s5,24(sp)
   12204:	01613823          	sd	s6,16(sp)
   12208:	01713423          	sd	s7,8(sp)
   1220c:	01813023          	sd	s8,0(sp)
   12210:	00060493          	mv	s1,a2
/home/lucas/Documents/summerwork2015/riscv-material/riscv-tools/riscv-gnu-toolchain/build/src/newlib-gcc/newlib/libc/stdlib/mallocr.c:2801
   12214:	1c058463          	beqz	a1,123dc <_realloc_r+0x1f8>
   12218:	00058a13          	mv	s4,a1
   1221c:	00050913          	mv	s2,a0
/home/lucas/Documents/summerwork2015/riscv-material/riscv-tools/riscv-gnu-toolchain/build/src/newlib-gcc/newlib/libc/stdlib/mallocr.c:2803
   12220:	9f1fe0ef          	jal	10c10 <__malloc_lock>
/home/lucas/Documents/summerwork2015/riscv-material/riscv-tools/riscv-gnu-toolchain/build/src/newlib-gcc/newlib/libc/stdlib/mallocr.c:2806
   12224:	ff8a3783          	ld	a5,-8(s4)
/home/lucas/Documents/summerwork2015/riscv-material/riscv-tools/riscv-gnu-toolchain/build/src/newlib-gcc/newlib/libc/stdlib/mallocr.c:2809
   12228:	01748413          	addi	s0,s1,23
   1222c:	02e00713          	li	a4,46
/home/lucas/Documents/summerwork2015/riscv-material/riscv-tools/riscv-gnu-toolchain/build/src/newlib-gcc/newlib/libc/stdlib/mallocr.c:2805
   12230:	ff0a0b13          	addi	s6,s4,-16
/home/lucas/Documents/summerwork2015/riscv-material/riscv-tools/riscv-gnu-toolchain/build/src/newlib-gcc/newlib/libc/stdlib/mallocr.c:2806
   12234:	ffc7fa93          	andi	s5,a5,-4
/home/lucas/Documents/summerwork2015/riscv-material/riscv-tools/riscv-gnu-toolchain/build/src/newlib-gcc/newlib/libc/stdlib/mallocr.c:2809
   12238:	0c877463          	bleu	s0,a4,12300 <_realloc_r+0x11c>
/home/lucas/Documents/summerwork2015/riscv-material/riscv-tools/riscv-gnu-toolchain/build/src/newlib-gcc/newlib/libc/stdlib/mallocr.c:2812 (discriminator 1)
   1223c:	80000737          	lui	a4,0x80000
/home/lucas/Documents/summerwork2015/riscv-material/riscv-tools/riscv-gnu-toolchain/build/src/newlib-gcc/newlib/libc/stdlib/mallocr.c:2809
   12240:	ff047413          	andi	s0,s0,-16
/home/lucas/Documents/summerwork2015/riscv-material/riscv-tools/riscv-gnu-toolchain/build/src/newlib-gcc/newlib/libc/stdlib/mallocr.c:2812
   12244:	fff74713          	not	a4,a4
   12248:	14876863          	bltu	a4,s0,12398 <_realloc_r+0x1b4>
   1224c:	14946663          	bltu	s0,s1,12398 <_realloc_r+0x1b4>
/home/lucas/Documents/summerwork2015/riscv-material/riscv-tools/riscv-gnu-toolchain/build/src/newlib-gcc/newlib/libc/stdlib/mallocr.c:2851
   12250:	0a8adc63          	ble	s0,s5,12308 <_realloc_r+0x124>
/home/lucas/Documents/summerwork2015/riscv-material/riscv-tools/riscv-gnu-toolchain/build/src/newlib-gcc/newlib/libc/stdlib/mallocr.c:2857
   12254:	000149b7          	lui	s3,0x14
   12258:	66098993          	addi	s3,s3,1632 # 14660 <__malloc_av_>
   1225c:	0109b703          	ld	a4,16(s3)
/home/lucas/Documents/summerwork2015/riscv-material/riscv-tools/riscv-gnu-toolchain/build/src/newlib-gcc/newlib/libc/stdlib/mallocr.c:2856
   12260:	015b06b3          	add	a3,s6,s5
/home/lucas/Documents/summerwork2015/riscv-material/riscv-tools/riscv-gnu-toolchain/build/src/newlib-gcc/newlib/libc/stdlib/mallocr.c:2857
   12264:	2ee68a63          	beq	a3,a4,12558 <_realloc_r+0x374>
/home/lucas/Documents/summerwork2015/riscv-material/riscv-tools/riscv-gnu-toolchain/build/src/newlib-gcc/newlib/libc/stdlib/mallocr.c:2857 (discriminator 1)
   12268:	0086b703          	ld	a4,8(a3)
   1226c:	ffe77613          	andi	a2,a4,-2
   12270:	00c68633          	add	a2,a3,a2
   12274:	00863603          	ld	a2,8(a2)
   12278:	00167613          	andi	a2,a2,1
   1227c:	0e060a63          	beqz	a2,12370 <_realloc_r+0x18c>
/home/lucas/Documents/summerwork2015/riscv-material/riscv-tools/riscv-gnu-toolchain/build/src/newlib-gcc/newlib/libc/stdlib/mallocr.c:2891
   12280:	0017f793          	andi	a5,a5,1
   12284:	24078c63          	beqz	a5,124dc <_realloc_r+0x2f8>
/home/lucas/Documents/summerwork2015/riscv-material/riscv-tools/riscv-gnu-toolchain/build/src/newlib-gcc/newlib/libc/stdlib/mallocr.c:2945
   12288:	00048593          	mv	a1,s1
   1228c:	00090513          	mv	a0,s2
   12290:	9bcfe0ef          	jal	1044c <_malloc_r>
   12294:	00050493          	mv	s1,a0
/home/lucas/Documents/summerwork2015/riscv-material/riscv-tools/riscv-gnu-toolchain/build/src/newlib-gcc/newlib/libc/stdlib/mallocr.c:2947
   12298:	48050c63          	beqz	a0,12730 <_realloc_r+0x54c>
/home/lucas/Documents/summerwork2015/riscv-material/riscv-tools/riscv-gnu-toolchain/build/src/newlib-gcc/newlib/libc/stdlib/mallocr.c:2956
   1229c:	ff8a3783          	ld	a5,-8(s4)
   122a0:	ff050693          	addi	a3,a0,-16
   122a4:	ffe7f713          	andi	a4,a5,-2
   122a8:	00eb0733          	add	a4,s6,a4
   122ac:	40e68c63          	beq	a3,a4,126c4 <_realloc_r+0x4e0>
/home/lucas/Documents/summerwork2015/riscv-material/riscv-tools/riscv-gnu-toolchain/build/src/newlib-gcc/newlib/libc/stdlib/mallocr.c:2964
   122b0:	ff8a8613          	addi	a2,s5,-8
   122b4:	04800793          	li	a5,72
   122b8:	3ec7e063          	bltu	a5,a2,12698 <_realloc_r+0x4b4>
/home/lucas/Documents/summerwork2015/riscv-material/riscv-tools/riscv-gnu-toolchain/build/src/newlib-gcc/newlib/libc/stdlib/mallocr.c:2964 (discriminator 1)
   122bc:	02700713          	li	a4,39
   122c0:	36c76263          	bltu	a4,a2,12624 <_realloc_r+0x440>
   122c4:	00050793          	mv	a5,a0
   122c8:	000a0713          	mv	a4,s4
/home/lucas/Documents/summerwork2015/riscv-material/riscv-tools/riscv-gnu-toolchain/build/src/newlib-gcc/newlib/libc/stdlib/mallocr.c:2964 (discriminator 9)
   122cc:	00073683          	ld	a3,0(a4) # ffffffff80000000 <_gp+0xffffffff7ffea990>
   122d0:	00d7b023          	sd	a3,0(a5)
   122d4:	00873683          	ld	a3,8(a4)
   122d8:	00d7b423          	sd	a3,8(a5)
   122dc:	01073703          	ld	a4,16(a4)
   122e0:	00e7b823          	sd	a4,16(a5)
/home/lucas/Documents/summerwork2015/riscv-material/riscv-tools/riscv-gnu-toolchain/build/src/newlib-gcc/newlib/libc/stdlib/mallocr.c:2965
   122e4:	000a0593          	mv	a1,s4
   122e8:	00090513          	mv	a0,s2
   122ec:	9dcff0ef          	jal	114c8 <_free_r>
/home/lucas/Documents/summerwork2015/riscv-material/riscv-tools/riscv-gnu-toolchain/build/src/newlib-gcc/newlib/libc/stdlib/mallocr.c:2966
   122f0:	00090513          	mv	a0,s2
   122f4:	921fe0ef          	jal	10c14 <__malloc_unlock>
/home/lucas/Documents/summerwork2015/riscv-material/riscv-tools/riscv-gnu-toolchain/build/src/newlib-gcc/newlib/libc/stdlib/mallocr.c:2967
   122f8:	00048513          	mv	a0,s1
   122fc:	0440006f          	j	12340 <_realloc_r+0x15c>
/home/lucas/Documents/summerwork2015/riscv-material/riscv-tools/riscv-gnu-toolchain/build/src/newlib-gcc/newlib/libc/stdlib/mallocr.c:2809
   12300:	02000413          	li	s0,32
   12304:	f49ff06f          	j	1224c <_realloc_r+0x68>
/home/lucas/Documents/summerwork2015/riscv-material/riscv-tools/riscv-gnu-toolchain/build/src/newlib-gcc/newlib/libc/stdlib/mallocr.c:2851
   12308:	000a0493          	mv	s1,s4
/home/lucas/Documents/summerwork2015/riscv-material/riscv-tools/riscv-gnu-toolchain/build/src/newlib-gcc/newlib/libc/stdlib/mallocr.c:2973
   1230c:	408a8733          	sub	a4,s5,s0
/home/lucas/Documents/summerwork2015/riscv-material/riscv-tools/riscv-gnu-toolchain/build/src/newlib-gcc/newlib/libc/stdlib/mallocr.c:2975
   12310:	01f00693          	li	a3,31
/home/lucas/Documents/summerwork2015/riscv-material/riscv-tools/riscv-gnu-toolchain/build/src/newlib-gcc/newlib/libc/stdlib/mallocr.c:2978
   12314:	0017f793          	andi	a5,a5,1
/home/lucas/Documents/summerwork2015/riscv-material/riscv-tools/riscv-gnu-toolchain/build/src/newlib-gcc/newlib/libc/stdlib/mallocr.c:2975
   12318:	08e6e863          	bltu	a3,a4,123a8 <_realloc_r+0x1c4>
/home/lucas/Documents/summerwork2015/riscv-material/riscv-tools/riscv-gnu-toolchain/build/src/newlib-gcc/newlib/libc/stdlib/mallocr.c:2985
   1231c:	0157e7b3          	or	a5,a5,s5
   12320:	00fb3423          	sd	a5,8(s6)
/home/lucas/Documents/summerwork2015/riscv-material/riscv-tools/riscv-gnu-toolchain/build/src/newlib-gcc/newlib/libc/stdlib/mallocr.c:2986
   12324:	015b0633          	add	a2,s6,s5
   12328:	00863783          	ld	a5,8(a2)
   1232c:	0017e793          	ori	a5,a5,1
   12330:	00f63423          	sd	a5,8(a2)
/home/lucas/Documents/summerwork2015/riscv-material/riscv-tools/riscv-gnu-toolchain/build/src/newlib-gcc/newlib/libc/stdlib/mallocr.c:2990
   12334:	00090513          	mv	a0,s2
   12338:	8ddfe0ef          	jal	10c14 <__malloc_unlock>
/home/lucas/Documents/summerwork2015/riscv-material/riscv-tools/riscv-gnu-toolchain/build/src/newlib-gcc/newlib/libc/stdlib/mallocr.c:2991
   1233c:	00048513          	mv	a0,s1
/home/lucas/Documents/summerwork2015/riscv-material/riscv-tools/riscv-gnu-toolchain/build/src/newlib-gcc/newlib/libc/stdlib/mallocr.c:2994
   12340:	04813083          	ld	ra,72(sp)
   12344:	04013403          	ld	s0,64(sp)
   12348:	03813483          	ld	s1,56(sp)
   1234c:	03013903          	ld	s2,48(sp)
   12350:	02813983          	ld	s3,40(sp)
   12354:	02013a03          	ld	s4,32(sp)
   12358:	01813a83          	ld	s5,24(sp)
   1235c:	01013b03          	ld	s6,16(sp)
   12360:	00813b83          	ld	s7,8(sp)
   12364:	00013c03          	ld	s8,0(sp)
   12368:	05010113          	addi	sp,sp,80
   1236c:	00008067          	ret
/home/lucas/Documents/summerwork2015/riscv-material/riscv-tools/riscv-gnu-toolchain/build/src/newlib-gcc/newlib/libc/stdlib/mallocr.c:2876
   12370:	ffc77713          	andi	a4,a4,-4
   12374:	01570733          	add	a4,a4,s5
   12378:	08874c63          	blt	a4,s0,12410 <_realloc_r+0x22c>
/home/lucas/Documents/summerwork2015/riscv-material/riscv-tools/riscv-gnu-toolchain/build/src/newlib-gcc/newlib/libc/stdlib/mallocr.c:2878
   1237c:	0186b603          	ld	a2,24(a3)
   12380:	0106b683          	ld	a3,16(a3)
/home/lucas/Documents/summerwork2015/riscv-material/riscv-tools/riscv-gnu-toolchain/build/src/newlib-gcc/newlib/libc/stdlib/mallocr.c:2880
   12384:	000a0493          	mv	s1,s4
/home/lucas/Documents/summerwork2015/riscv-material/riscv-tools/riscv-gnu-toolchain/build/src/newlib-gcc/newlib/libc/stdlib/mallocr.c:2879
   12388:	00070a93          	mv	s5,a4
/home/lucas/Documents/summerwork2015/riscv-material/riscv-tools/riscv-gnu-toolchain/build/src/newlib-gcc/newlib/libc/stdlib/mallocr.c:2878
   1238c:	00c6bc23          	sd	a2,24(a3)
   12390:	00d63823          	sd	a3,16(a2)
/home/lucas/Documents/summerwork2015/riscv-material/riscv-tools/riscv-gnu-toolchain/build/src/newlib-gcc/newlib/libc/stdlib/mallocr.c:2880
   12394:	f79ff06f          	j	1230c <_realloc_r+0x128>
/home/lucas/Documents/summerwork2015/riscv-material/riscv-tools/riscv-gnu-toolchain/build/src/newlib-gcc/newlib/libc/stdlib/mallocr.c:2814
   12398:	00c00793          	li	a5,12
   1239c:	00f92023          	sw	a5,0(s2)
/home/lucas/Documents/summerwork2015/riscv-material/riscv-tools/riscv-gnu-toolchain/build/src/newlib-gcc/newlib/libc/stdlib/mallocr.c:2815
   123a0:	00000513          	li	a0,0
   123a4:	f9dff06f          	j	12340 <_realloc_r+0x15c>
/home/lucas/Documents/summerwork2015/riscv-material/riscv-tools/riscv-gnu-toolchain/build/src/newlib-gcc/newlib/libc/stdlib/mallocr.c:2977
   123a8:	008b05b3          	add	a1,s6,s0
/home/lucas/Documents/summerwork2015/riscv-material/riscv-tools/riscv-gnu-toolchain/build/src/newlib-gcc/newlib/libc/stdlib/mallocr.c:2978
   123ac:	0087e433          	or	s0,a5,s0
/home/lucas/Documents/summerwork2015/riscv-material/riscv-tools/riscv-gnu-toolchain/build/src/newlib-gcc/newlib/libc/stdlib/mallocr.c:2979
   123b0:	00176793          	ori	a5,a4,1
/home/lucas/Documents/summerwork2015/riscv-material/riscv-tools/riscv-gnu-toolchain/build/src/newlib-gcc/newlib/libc/stdlib/mallocr.c:2978
   123b4:	008b3423          	sd	s0,8(s6)
/home/lucas/Documents/summerwork2015/riscv-material/riscv-tools/riscv-gnu-toolchain/build/src/newlib-gcc/newlib/libc/stdlib/mallocr.c:2980
   123b8:	00e58733          	add	a4,a1,a4
/home/lucas/Documents/summerwork2015/riscv-material/riscv-tools/riscv-gnu-toolchain/build/src/newlib-gcc/newlib/libc/stdlib/mallocr.c:2979
   123bc:	00f5b423          	sd	a5,8(a1)
/home/lucas/Documents/summerwork2015/riscv-material/riscv-tools/riscv-gnu-toolchain/build/src/newlib-gcc/newlib/libc/stdlib/mallocr.c:2980
   123c0:	00873783          	ld	a5,8(a4)
/home/lucas/Documents/summerwork2015/riscv-material/riscv-tools/riscv-gnu-toolchain/build/src/newlib-gcc/newlib/libc/stdlib/mallocr.c:2981
   123c4:	01058593          	addi	a1,a1,16
   123c8:	00090513          	mv	a0,s2
/home/lucas/Documents/summerwork2015/riscv-material/riscv-tools/riscv-gnu-toolchain/build/src/newlib-gcc/newlib/libc/stdlib/mallocr.c:2980
   123cc:	0017e793          	ori	a5,a5,1
   123d0:	00f73423          	sd	a5,8(a4)
/home/lucas/Documents/summerwork2015/riscv-material/riscv-tools/riscv-gnu-toolchain/build/src/newlib-gcc/newlib/libc/stdlib/mallocr.c:2981
   123d4:	8f4ff0ef          	jal	114c8 <_free_r>
   123d8:	f5dff06f          	j	12334 <_realloc_r+0x150>
/home/lucas/Documents/summerwork2015/riscv-material/riscv-tools/riscv-gnu-toolchain/build/src/newlib-gcc/newlib/libc/stdlib/mallocr.c:2994 (discriminator 1)
   123dc:	04813083          	ld	ra,72(sp)
   123e0:	04013403          	ld	s0,64(sp)
   123e4:	03813483          	ld	s1,56(sp)
   123e8:	03013903          	ld	s2,48(sp)
   123ec:	02813983          	ld	s3,40(sp)
   123f0:	02013a03          	ld	s4,32(sp)
   123f4:	01813a83          	ld	s5,24(sp)
   123f8:	01013b03          	ld	s6,16(sp)
   123fc:	00813b83          	ld	s7,8(sp)
   12400:	00013c03          	ld	s8,0(sp)
/home/lucas/Documents/summerwork2015/riscv-material/riscv-tools/riscv-gnu-toolchain/build/src/newlib-gcc/newlib/libc/stdlib/mallocr.c:2801
   12404:	00060593          	mv	a1,a2
/home/lucas/Documents/summerwork2015/riscv-material/riscv-tools/riscv-gnu-toolchain/build/src/newlib-gcc/newlib/libc/stdlib/mallocr.c:2994
   12408:	05010113          	addi	sp,sp,80
/home/lucas/Documents/summerwork2015/riscv-material/riscv-tools/riscv-gnu-toolchain/build/src/newlib-gcc/newlib/libc/stdlib/mallocr.c:2801
   1240c:	840fe06f          	j	1044c <_malloc_r>
/home/lucas/Documents/summerwork2015/riscv-material/riscv-tools/riscv-gnu-toolchain/build/src/newlib-gcc/newlib/libc/stdlib/mallocr.c:2891
   12410:	0017f793          	andi	a5,a5,1
   12414:	e6079ae3          	bnez	a5,12288 <_realloc_r+0xa4>
/home/lucas/Documents/summerwork2015/riscv-material/riscv-tools/riscv-gnu-toolchain/build/src/newlib-gcc/newlib/libc/stdlib/mallocr.c:2893
   12418:	ff0a3b83          	ld	s7,-16(s4)
   1241c:	417b0bb3          	sub	s7,s6,s7
/home/lucas/Documents/summerwork2015/riscv-material/riscv-tools/riscv-gnu-toolchain/build/src/newlib-gcc/newlib/libc/stdlib/mallocr.c:2894
   12420:	008bb783          	ld	a5,8(s7)
   12424:	ffc7f793          	andi	a5,a5,-4
/home/lucas/Documents/summerwork2015/riscv-material/riscv-tools/riscv-gnu-toolchain/build/src/newlib-gcc/newlib/libc/stdlib/mallocr.c:2919
   12428:	00f709b3          	add	s3,a4,a5
   1242c:	0c89c063          	blt	s3,s0,124ec <_realloc_r+0x308>
/home/lucas/Documents/summerwork2015/riscv-material/riscv-tools/riscv-gnu-toolchain/build/src/newlib-gcc/newlib/libc/stdlib/mallocr.c:2921
   12430:	0186b783          	ld	a5,24(a3)
   12434:	0106b703          	ld	a4,16(a3)
/home/lucas/Documents/summerwork2015/riscv-material/riscv-tools/riscv-gnu-toolchain/build/src/newlib-gcc/newlib/libc/stdlib/mallocr.c:2926
   12438:	ff8a8613          	addi	a2,s5,-8
/home/lucas/Documents/summerwork2015/riscv-material/riscv-tools/riscv-gnu-toolchain/build/src/newlib-gcc/newlib/libc/stdlib/mallocr.c:2925
   1243c:	010b8493          	addi	s1,s7,16
/home/lucas/Documents/summerwork2015/riscv-material/riscv-tools/riscv-gnu-toolchain/build/src/newlib-gcc/newlib/libc/stdlib/mallocr.c:2921
   12440:	00f73c23          	sd	a5,24(a4)
   12444:	00e7b823          	sd	a4,16(a5)
/home/lucas/Documents/summerwork2015/riscv-material/riscv-tools/riscv-gnu-toolchain/build/src/newlib-gcc/newlib/libc/stdlib/mallocr.c:2922
   12448:	010bb703          	ld	a4,16(s7)
   1244c:	018bb783          	ld	a5,24(s7)
   12450:	00f73c23          	sd	a5,24(a4)
   12454:	00e7b823          	sd	a4,16(a5)
/home/lucas/Documents/summerwork2015/riscv-material/riscv-tools/riscv-gnu-toolchain/build/src/newlib-gcc/newlib/libc/stdlib/mallocr.c:2926
   12458:	04800793          	li	a5,72
   1245c:	1ec7e663          	bltu	a5,a2,12648 <_realloc_r+0x464>
/home/lucas/Documents/summerwork2015/riscv-material/riscv-tools/riscv-gnu-toolchain/build/src/newlib-gcc/newlib/libc/stdlib/mallocr.c:2926 (discriminator 1)
   12460:	02700713          	li	a4,39
   12464:	00048793          	mv	a5,s1
   12468:	04c77663          	bleu	a2,a4,124b4 <_realloc_r+0x2d0>
/home/lucas/Documents/summerwork2015/riscv-material/riscv-tools/riscv-gnu-toolchain/build/src/newlib-gcc/newlib/libc/stdlib/mallocr.c:2926 (discriminator 3)
   1246c:	000a3783          	ld	a5,0(s4)
   12470:	00fbb823          	sd	a5,16(s7)
   12474:	008a3783          	ld	a5,8(s4)
   12478:	00fbbc23          	sd	a5,24(s7)
   1247c:	03700793          	li	a5,55
   12480:	24c7fc63          	bleu	a2,a5,126d8 <_realloc_r+0x4f4>
/home/lucas/Documents/summerwork2015/riscv-material/riscv-tools/riscv-gnu-toolchain/build/src/newlib-gcc/newlib/libc/stdlib/mallocr.c:2926 (discriminator 5)
   12484:	010a3783          	ld	a5,16(s4)
   12488:	02fbb023          	sd	a5,32(s7)
   1248c:	018a3783          	ld	a5,24(s4)
   12490:	02fbb423          	sd	a5,40(s7)
   12494:	04800793          	li	a5,72
   12498:	0af61a63          	bne	a2,a5,1254c <_realloc_r+0x368>
/home/lucas/Documents/summerwork2015/riscv-material/riscv-tools/riscv-gnu-toolchain/build/src/newlib-gcc/newlib/libc/stdlib/mallocr.c:2938 (discriminator 7)
   1249c:	020a3703          	ld	a4,32(s4)
   124a0:	040b8793          	addi	a5,s7,64
   124a4:	030a0a13          	addi	s4,s4,48
   124a8:	02ebb823          	sd	a4,48(s7)
   124ac:	ff8a3703          	ld	a4,-8(s4)
   124b0:	02ebbc23          	sd	a4,56(s7)
/home/lucas/Documents/summerwork2015/riscv-material/riscv-tools/riscv-gnu-toolchain/build/src/newlib-gcc/newlib/libc/stdlib/mallocr.c:2938 (discriminator 9)
   124b4:	000a3703          	ld	a4,0(s4)
/home/lucas/Documents/summerwork2015/riscv-material/riscv-tools/riscv-gnu-toolchain/build/src/newlib-gcc/newlib/libc/stdlib/mallocr.c:2936
   124b8:	00098a93          	mv	s5,s3
   124bc:	000b8b13          	mv	s6,s7
/home/lucas/Documents/summerwork2015/riscv-material/riscv-tools/riscv-gnu-toolchain/build/src/newlib-gcc/newlib/libc/stdlib/mallocr.c:2938
   124c0:	00e7b023          	sd	a4,0(a5)
   124c4:	008a3703          	ld	a4,8(s4)
   124c8:	00e7b423          	sd	a4,8(a5)
   124cc:	010a3703          	ld	a4,16(s4)
   124d0:	00e7b823          	sd	a4,16(a5)
   124d4:	008bb783          	ld	a5,8(s7)
   124d8:	e35ff06f          	j	1230c <_realloc_r+0x128>
/home/lucas/Documents/summerwork2015/riscv-material/riscv-tools/riscv-gnu-toolchain/build/src/newlib-gcc/newlib/libc/stdlib/mallocr.c:2893
   124dc:	ff0a3b83          	ld	s7,-16(s4)
   124e0:	417b0bb3          	sub	s7,s6,s7
/home/lucas/Documents/summerwork2015/riscv-material/riscv-tools/riscv-gnu-toolchain/build/src/newlib-gcc/newlib/libc/stdlib/mallocr.c:2894
   124e4:	008bb783          	ld	a5,8(s7)
   124e8:	ffc7f793          	andi	a5,a5,-4
/home/lucas/Documents/summerwork2015/riscv-material/riscv-tools/riscv-gnu-toolchain/build/src/newlib-gcc/newlib/libc/stdlib/mallocr.c:2932 (discriminator 1)
   124ec:	00fa89b3          	add	s3,s5,a5
   124f0:	d889cce3          	blt	s3,s0,12288 <_realloc_r+0xa4>
/home/lucas/Documents/summerwork2015/riscv-material/riscv-tools/riscv-gnu-toolchain/build/src/newlib-gcc/newlib/libc/stdlib/mallocr.c:2934
   124f4:	018bb783          	ld	a5,24(s7)
   124f8:	010bb703          	ld	a4,16(s7)
/home/lucas/Documents/summerwork2015/riscv-material/riscv-tools/riscv-gnu-toolchain/build/src/newlib-gcc/newlib/libc/stdlib/mallocr.c:2938
   124fc:	ff8a8613          	addi	a2,s5,-8
   12500:	04800693          	li	a3,72
/home/lucas/Documents/summerwork2015/riscv-material/riscv-tools/riscv-gnu-toolchain/build/src/newlib-gcc/newlib/libc/stdlib/mallocr.c:2934
   12504:	00f73c23          	sd	a5,24(a4)
/home/lucas/Documents/summerwork2015/riscv-material/riscv-tools/riscv-gnu-toolchain/build/src/newlib-gcc/newlib/libc/stdlib/mallocr.c:2937
   12508:	010b8493          	addi	s1,s7,16
/home/lucas/Documents/summerwork2015/riscv-material/riscv-tools/riscv-gnu-toolchain/build/src/newlib-gcc/newlib/libc/stdlib/mallocr.c:2934
   1250c:	00e7b823          	sd	a4,16(a5)
/home/lucas/Documents/summerwork2015/riscv-material/riscv-tools/riscv-gnu-toolchain/build/src/newlib-gcc/newlib/libc/stdlib/mallocr.c:2938
   12510:	12c6ec63          	bltu	a3,a2,12648 <_realloc_r+0x464>
/home/lucas/Documents/summerwork2015/riscv-material/riscv-tools/riscv-gnu-toolchain/build/src/newlib-gcc/newlib/libc/stdlib/mallocr.c:2938 (discriminator 1)
   12514:	02700713          	li	a4,39
   12518:	00048793          	mv	a5,s1
   1251c:	f8c77ce3          	bleu	a2,a4,124b4 <_realloc_r+0x2d0>
/home/lucas/Documents/summerwork2015/riscv-material/riscv-tools/riscv-gnu-toolchain/build/src/newlib-gcc/newlib/libc/stdlib/mallocr.c:2938 (discriminator 3)
   12520:	000a3783          	ld	a5,0(s4)
   12524:	00fbb823          	sd	a5,16(s7)
   12528:	008a3783          	ld	a5,8(s4)
   1252c:	00fbbc23          	sd	a5,24(s7)
   12530:	03700793          	li	a5,55
   12534:	1ac7f263          	bleu	a2,a5,126d8 <_realloc_r+0x4f4>
/home/lucas/Documents/summerwork2015/riscv-material/riscv-tools/riscv-gnu-toolchain/build/src/newlib-gcc/newlib/libc/stdlib/mallocr.c:2938 (discriminator 5)
   12538:	010a3783          	ld	a5,16(s4)
   1253c:	02fbb023          	sd	a5,32(s7)
   12540:	018a3783          	ld	a5,24(s4)
   12544:	02fbb423          	sd	a5,40(s7)
   12548:	f4d60ae3          	beq	a2,a3,1249c <_realloc_r+0x2b8>
/home/lucas/Documents/summerwork2015/riscv-material/riscv-tools/riscv-gnu-toolchain/build/src/newlib-gcc/newlib/libc/stdlib/mallocr.c:2938
   1254c:	030b8793          	addi	a5,s7,48
   12550:	020a0a13          	addi	s4,s4,32
   12554:	f61ff06f          	j	124b4 <_realloc_r+0x2d0>
/home/lucas/Documents/summerwork2015/riscv-material/riscv-tools/riscv-gnu-toolchain/build/src/newlib-gcc/newlib/libc/stdlib/mallocr.c:2864
   12558:	0086b703          	ld	a4,8(a3)
   1255c:	02040693          	addi	a3,s0,32
   12560:	ffc77713          	andi	a4,a4,-4
   12564:	01570733          	add	a4,a4,s5
   12568:	0ed75e63          	ble	a3,a4,12664 <_realloc_r+0x480>
/home/lucas/Documents/summerwork2015/riscv-material/riscv-tools/riscv-gnu-toolchain/build/src/newlib-gcc/newlib/libc/stdlib/mallocr.c:2891
   1256c:	0017f793          	andi	a5,a5,1
   12570:	d0079ce3          	bnez	a5,12288 <_realloc_r+0xa4>
/home/lucas/Documents/summerwork2015/riscv-material/riscv-tools/riscv-gnu-toolchain/build/src/newlib-gcc/newlib/libc/stdlib/mallocr.c:2893
   12574:	ff0a3b83          	ld	s7,-16(s4)
   12578:	417b0bb3          	sub	s7,s6,s7
/home/lucas/Documents/summerwork2015/riscv-material/riscv-tools/riscv-gnu-toolchain/build/src/newlib-gcc/newlib/libc/stdlib/mallocr.c:2894
   1257c:	008bb783          	ld	a5,8(s7)
   12580:	ffc7f793          	andi	a5,a5,-4
/home/lucas/Documents/summerwork2015/riscv-material/riscv-tools/riscv-gnu-toolchain/build/src/newlib-gcc/newlib/libc/stdlib/mallocr.c:2903
   12584:	00e78c33          	add	s8,a5,a4
   12588:	f6dc42e3          	blt	s8,a3,124ec <_realloc_r+0x308>
/home/lucas/Documents/summerwork2015/riscv-material/riscv-tools/riscv-gnu-toolchain/build/src/newlib-gcc/newlib/libc/stdlib/mallocr.c:2905
   1258c:	018bb783          	ld	a5,24(s7)
   12590:	010bb703          	ld	a4,16(s7)
/home/lucas/Documents/summerwork2015/riscv-material/riscv-tools/riscv-gnu-toolchain/build/src/newlib-gcc/newlib/libc/stdlib/mallocr.c:2909
   12594:	ff8a8613          	addi	a2,s5,-8
   12598:	04800693          	li	a3,72
/home/lucas/Documents/summerwork2015/riscv-material/riscv-tools/riscv-gnu-toolchain/build/src/newlib-gcc/newlib/libc/stdlib/mallocr.c:2905
   1259c:	00f73c23          	sd	a5,24(a4)
/home/lucas/Documents/summerwork2015/riscv-material/riscv-tools/riscv-gnu-toolchain/build/src/newlib-gcc/newlib/libc/stdlib/mallocr.c:2908
   125a0:	010b8493          	addi	s1,s7,16
/home/lucas/Documents/summerwork2015/riscv-material/riscv-tools/riscv-gnu-toolchain/build/src/newlib-gcc/newlib/libc/stdlib/mallocr.c:2905
   125a4:	00e7b823          	sd	a4,16(a5)
/home/lucas/Documents/summerwork2015/riscv-material/riscv-tools/riscv-gnu-toolchain/build/src/newlib-gcc/newlib/libc/stdlib/mallocr.c:2909
   125a8:	14c6ec63          	bltu	a3,a2,12700 <_realloc_r+0x51c>
/home/lucas/Documents/summerwork2015/riscv-material/riscv-tools/riscv-gnu-toolchain/build/src/newlib-gcc/newlib/libc/stdlib/mallocr.c:2909 (discriminator 1)
   125ac:	02700713          	li	a4,39
   125b0:	00048793          	mv	a5,s1
   125b4:	02c77263          	bleu	a2,a4,125d8 <_realloc_r+0x3f4>
/home/lucas/Documents/summerwork2015/riscv-material/riscv-tools/riscv-gnu-toolchain/build/src/newlib-gcc/newlib/libc/stdlib/mallocr.c:2909 (discriminator 3)
   125b8:	000a3783          	ld	a5,0(s4)
   125bc:	00fbb823          	sd	a5,16(s7)
   125c0:	008a3783          	ld	a5,8(s4)
   125c4:	00fbbc23          	sd	a5,24(s7)
   125c8:	03700793          	li	a5,55
   125cc:	14c7e263          	bltu	a5,a2,12710 <_realloc_r+0x52c>
/home/lucas/Documents/summerwork2015/riscv-material/riscv-tools/riscv-gnu-toolchain/build/src/newlib-gcc/newlib/libc/stdlib/mallocr.c:2909
   125d0:	020b8793          	addi	a5,s7,32
   125d4:	010a0a13          	addi	s4,s4,16
/home/lucas/Documents/summerwork2015/riscv-material/riscv-tools/riscv-gnu-toolchain/build/src/newlib-gcc/newlib/libc/stdlib/mallocr.c:2909 (discriminator 9)
   125d8:	000a3703          	ld	a4,0(s4)
   125dc:	00e7b023          	sd	a4,0(a5)
   125e0:	008a3703          	ld	a4,8(s4)
   125e4:	00e7b423          	sd	a4,8(a5)
   125e8:	010a3703          	ld	a4,16(s4)
   125ec:	00e7b823          	sd	a4,16(a5)
/home/lucas/Documents/summerwork2015/riscv-material/riscv-tools/riscv-gnu-toolchain/build/src/newlib-gcc/newlib/libc/stdlib/mallocr.c:2911
   125f0:	408c0733          	sub	a4,s8,s0
/home/lucas/Documents/summerwork2015/riscv-material/riscv-tools/riscv-gnu-toolchain/build/src/newlib-gcc/newlib/libc/stdlib/mallocr.c:2910
   125f4:	008b87b3          	add	a5,s7,s0
/home/lucas/Documents/summerwork2015/riscv-material/riscv-tools/riscv-gnu-toolchain/build/src/newlib-gcc/newlib/libc/stdlib/mallocr.c:2911
   125f8:	00176713          	ori	a4,a4,1
/home/lucas/Documents/summerwork2015/riscv-material/riscv-tools/riscv-gnu-toolchain/build/src/newlib-gcc/newlib/libc/stdlib/mallocr.c:2910
   125fc:	00f9b823          	sd	a5,16(s3)
/home/lucas/Documents/summerwork2015/riscv-material/riscv-tools/riscv-gnu-toolchain/build/src/newlib-gcc/newlib/libc/stdlib/mallocr.c:2911
   12600:	00e7b423          	sd	a4,8(a5)
/home/lucas/Documents/summerwork2015/riscv-material/riscv-tools/riscv-gnu-toolchain/build/src/newlib-gcc/newlib/libc/stdlib/mallocr.c:2912
   12604:	008bb783          	ld	a5,8(s7)
/home/lucas/Documents/summerwork2015/riscv-material/riscv-tools/riscv-gnu-toolchain/build/src/newlib-gcc/newlib/libc/stdlib/mallocr.c:2913
   12608:	00090513          	mv	a0,s2
/home/lucas/Documents/summerwork2015/riscv-material/riscv-tools/riscv-gnu-toolchain/build/src/newlib-gcc/newlib/libc/stdlib/mallocr.c:2912
   1260c:	0017f793          	andi	a5,a5,1
   12610:	0087e433          	or	s0,a5,s0
   12614:	008bb423          	sd	s0,8(s7)
/home/lucas/Documents/summerwork2015/riscv-material/riscv-tools/riscv-gnu-toolchain/build/src/newlib-gcc/newlib/libc/stdlib/mallocr.c:2913
   12618:	dfcfe0ef          	jal	10c14 <__malloc_unlock>
/home/lucas/Documents/summerwork2015/riscv-material/riscv-tools/riscv-gnu-toolchain/build/src/newlib-gcc/newlib/libc/stdlib/mallocr.c:2914
   1261c:	00048513          	mv	a0,s1
   12620:	d21ff06f          	j	12340 <_realloc_r+0x15c>
/home/lucas/Documents/summerwork2015/riscv-material/riscv-tools/riscv-gnu-toolchain/build/src/newlib-gcc/newlib/libc/stdlib/mallocr.c:2964 (discriminator 3)
   12624:	000a3703          	ld	a4,0(s4)
   12628:	00e53023          	sd	a4,0(a0)
   1262c:	008a3703          	ld	a4,8(s4)
   12630:	00e53423          	sd	a4,8(a0)
   12634:	03700713          	li	a4,55
   12638:	06c76663          	bltu	a4,a2,126a4 <_realloc_r+0x4c0>
/home/lucas/Documents/summerwork2015/riscv-material/riscv-tools/riscv-gnu-toolchain/build/src/newlib-gcc/newlib/libc/stdlib/mallocr.c:2964
   1263c:	01050793          	addi	a5,a0,16
   12640:	010a0713          	addi	a4,s4,16
   12644:	c89ff06f          	j	122cc <_realloc_r+0xe8>
/home/lucas/Documents/summerwork2015/riscv-material/riscv-tools/riscv-gnu-toolchain/build/src/newlib-gcc/newlib/libc/stdlib/mallocr.c:2938 (discriminator 2)
   12648:	000a0593          	mv	a1,s4
   1264c:	00048513          	mv	a0,s1
   12650:	9a5ff0ef          	jal	11ff4 <memmove>
/home/lucas/Documents/summerwork2015/riscv-material/riscv-tools/riscv-gnu-toolchain/build/src/newlib-gcc/newlib/libc/stdlib/mallocr.c:2936
   12654:	00098a93          	mv	s5,s3
   12658:	008bb783          	ld	a5,8(s7)
/home/lucas/Documents/summerwork2015/riscv-material/riscv-tools/riscv-gnu-toolchain/build/src/newlib-gcc/newlib/libc/stdlib/mallocr.c:2938
   1265c:	000b8b13          	mv	s6,s7
   12660:	cadff06f          	j	1230c <_realloc_r+0x128>
/home/lucas/Documents/summerwork2015/riscv-material/riscv-tools/riscv-gnu-toolchain/build/src/newlib-gcc/newlib/libc/stdlib/mallocr.c:2868
   12664:	40870733          	sub	a4,a4,s0
/home/lucas/Documents/summerwork2015/riscv-material/riscv-tools/riscv-gnu-toolchain/build/src/newlib-gcc/newlib/libc/stdlib/mallocr.c:2867
   12668:	008b0b33          	add	s6,s6,s0
/home/lucas/Documents/summerwork2015/riscv-material/riscv-tools/riscv-gnu-toolchain/build/src/newlib-gcc/newlib/libc/stdlib/mallocr.c:2868
   1266c:	00176713          	ori	a4,a4,1
/home/lucas/Documents/summerwork2015/riscv-material/riscv-tools/riscv-gnu-toolchain/build/src/newlib-gcc/newlib/libc/stdlib/mallocr.c:2867
   12670:	0169b823          	sd	s6,16(s3)
/home/lucas/Documents/summerwork2015/riscv-material/riscv-tools/riscv-gnu-toolchain/build/src/newlib-gcc/newlib/libc/stdlib/mallocr.c:2868
   12674:	00eb3423          	sd	a4,8(s6)
/home/lucas/Documents/summerwork2015/riscv-material/riscv-tools/riscv-gnu-toolchain/build/src/newlib-gcc/newlib/libc/stdlib/mallocr.c:2869
   12678:	ff8a3783          	ld	a5,-8(s4)
/home/lucas/Documents/summerwork2015/riscv-material/riscv-tools/riscv-gnu-toolchain/build/src/newlib-gcc/newlib/libc/stdlib/mallocr.c:2870
   1267c:	00090513          	mv	a0,s2
/home/lucas/Documents/summerwork2015/riscv-material/riscv-tools/riscv-gnu-toolchain/build/src/newlib-gcc/newlib/libc/stdlib/mallocr.c:2869
   12680:	0017f793          	andi	a5,a5,1
   12684:	0087e433          	or	s0,a5,s0
   12688:	fe8a3c23          	sd	s0,-8(s4)
/home/lucas/Documents/summerwork2015/riscv-material/riscv-tools/riscv-gnu-toolchain/build/src/newlib-gcc/newlib/libc/stdlib/mallocr.c:2870
   1268c:	d88fe0ef          	jal	10c14 <__malloc_unlock>
/home/lucas/Documents/summerwork2015/riscv-material/riscv-tools/riscv-gnu-toolchain/build/src/newlib-gcc/newlib/libc/stdlib/mallocr.c:2871
   12690:	000a0513          	mv	a0,s4
   12694:	cadff06f          	j	12340 <_realloc_r+0x15c>
/home/lucas/Documents/summerwork2015/riscv-material/riscv-tools/riscv-gnu-toolchain/build/src/newlib-gcc/newlib/libc/stdlib/mallocr.c:2964 (discriminator 2)
   12698:	000a0593          	mv	a1,s4
   1269c:	959ff0ef          	jal	11ff4 <memmove>
   126a0:	c45ff06f          	j	122e4 <_realloc_r+0x100>
/home/lucas/Documents/summerwork2015/riscv-material/riscv-tools/riscv-gnu-toolchain/build/src/newlib-gcc/newlib/libc/stdlib/mallocr.c:2964 (discriminator 5)
   126a4:	010a3703          	ld	a4,16(s4)
   126a8:	00e53823          	sd	a4,16(a0)
   126ac:	018a3703          	ld	a4,24(s4)
   126b0:	00e53c23          	sd	a4,24(a0)
   126b4:	02f60863          	beq	a2,a5,126e4 <_realloc_r+0x500>
/home/lucas/Documents/summerwork2015/riscv-material/riscv-tools/riscv-gnu-toolchain/build/src/newlib-gcc/newlib/libc/stdlib/mallocr.c:2964
   126b8:	02050793          	addi	a5,a0,32
   126bc:	020a0713          	addi	a4,s4,32
   126c0:	c0dff06f          	j	122cc <_realloc_r+0xe8>
/home/lucas/Documents/summerwork2015/riscv-material/riscv-tools/riscv-gnu-toolchain/build/src/newlib-gcc/newlib/libc/stdlib/mallocr.c:2958
   126c4:	ff853703          	ld	a4,-8(a0)
/home/lucas/Documents/summerwork2015/riscv-material/riscv-tools/riscv-gnu-toolchain/build/src/newlib-gcc/newlib/libc/stdlib/mallocr.c:2960
   126c8:	000a0493          	mv	s1,s4
/home/lucas/Documents/summerwork2015/riscv-material/riscv-tools/riscv-gnu-toolchain/build/src/newlib-gcc/newlib/libc/stdlib/mallocr.c:2958
   126cc:	ffc77713          	andi	a4,a4,-4
   126d0:	00ea8ab3          	add	s5,s5,a4
/home/lucas/Documents/summerwork2015/riscv-material/riscv-tools/riscv-gnu-toolchain/build/src/newlib-gcc/newlib/libc/stdlib/mallocr.c:2960
   126d4:	c39ff06f          	j	1230c <_realloc_r+0x128>
/home/lucas/Documents/summerwork2015/riscv-material/riscv-tools/riscv-gnu-toolchain/build/src/newlib-gcc/newlib/libc/stdlib/mallocr.c:2938
   126d8:	020b8793          	addi	a5,s7,32
   126dc:	010a0a13          	addi	s4,s4,16
   126e0:	dd5ff06f          	j	124b4 <_realloc_r+0x2d0>
/home/lucas/Documents/summerwork2015/riscv-material/riscv-tools/riscv-gnu-toolchain/build/src/newlib-gcc/newlib/libc/stdlib/mallocr.c:2964 (discriminator 7)
   126e4:	020a3683          	ld	a3,32(s4)
   126e8:	03050793          	addi	a5,a0,48
   126ec:	030a0713          	addi	a4,s4,48
   126f0:	02d53023          	sd	a3,32(a0)
   126f4:	028a3683          	ld	a3,40(s4)
   126f8:	02d53423          	sd	a3,40(a0)
   126fc:	bd1ff06f          	j	122cc <_realloc_r+0xe8>
/home/lucas/Documents/summerwork2015/riscv-material/riscv-tools/riscv-gnu-toolchain/build/src/newlib-gcc/newlib/libc/stdlib/mallocr.c:2909 (discriminator 2)
   12700:	000a0593          	mv	a1,s4
   12704:	00048513          	mv	a0,s1
   12708:	8edff0ef          	jal	11ff4 <memmove>
   1270c:	ee5ff06f          	j	125f0 <_realloc_r+0x40c>
/home/lucas/Documents/summerwork2015/riscv-material/riscv-tools/riscv-gnu-toolchain/build/src/newlib-gcc/newlib/libc/stdlib/mallocr.c:2909 (discriminator 5)
   12710:	010a3783          	ld	a5,16(s4)
   12714:	02fbb023          	sd	a5,32(s7)
   12718:	018a3783          	ld	a5,24(s4)
   1271c:	02fbb423          	sd	a5,40(s7)
   12720:	02d60063          	beq	a2,a3,12740 <_realloc_r+0x55c>
/home/lucas/Documents/summerwork2015/riscv-material/riscv-tools/riscv-gnu-toolchain/build/src/newlib-gcc/newlib/libc/stdlib/mallocr.c:2909
   12724:	030b8793          	addi	a5,s7,48
   12728:	020a0a13          	addi	s4,s4,32
   1272c:	eadff06f          	j	125d8 <_realloc_r+0x3f4>
/home/lucas/Documents/summerwork2015/riscv-material/riscv-tools/riscv-gnu-toolchain/build/src/newlib-gcc/newlib/libc/stdlib/mallocr.c:2949
   12730:	00090513          	mv	a0,s2
   12734:	ce0fe0ef          	jal	10c14 <__malloc_unlock>
/home/lucas/Documents/summerwork2015/riscv-material/riscv-tools/riscv-gnu-toolchain/build/src/newlib-gcc/newlib/libc/stdlib/mallocr.c:2950
   12738:	00000513          	li	a0,0
   1273c:	c05ff06f          	j	12340 <_realloc_r+0x15c>
/home/lucas/Documents/summerwork2015/riscv-material/riscv-tools/riscv-gnu-toolchain/build/src/newlib-gcc/newlib/libc/stdlib/mallocr.c:2909 (discriminator 7)
   12740:	020a3703          	ld	a4,32(s4)
   12744:	040b8793          	addi	a5,s7,64
   12748:	030a0a13          	addi	s4,s4,48
   1274c:	02ebb823          	sd	a4,48(s7)
   12750:	ff8a3703          	ld	a4,-8(s4)
   12754:	02ebbc23          	sd	a4,56(s7)
   12758:	e81ff06f          	j	125d8 <_realloc_r+0x3f4>

000000000001275c <__sread>:
__sread():
/home/lucas/Documents/summerwork2015/riscv-material/riscv-tools/riscv-gnu-toolchain/build/src/newlib-gcc/newlib/libc/stdio/stdio.c:48
   1275c:	01259503          	lh	a0,18(a1)
/home/lucas/Documents/summerwork2015/riscv-material/riscv-tools/riscv-gnu-toolchain/build/src/newlib-gcc/newlib/libc/stdio/stdio.c:38
   12760:	ff010113          	addi	sp,sp,-16
   12764:	00813023          	sd	s0,0(sp)
   12768:	00058413          	mv	s0,a1
/home/lucas/Documents/summerwork2015/riscv-material/riscv-tools/riscv-gnu-toolchain/build/src/newlib-gcc/newlib/libc/stdio/stdio.c:48
   1276c:	00060593          	mv	a1,a2
   12770:	00068613          	mv	a2,a3
/home/lucas/Documents/summerwork2015/riscv-material/riscv-tools/riscv-gnu-toolchain/build/src/newlib-gcc/newlib/libc/stdio/stdio.c:38
   12774:	00113423          	sd	ra,8(sp)
/home/lucas/Documents/summerwork2015/riscv-material/riscv-tools/riscv-gnu-toolchain/build/src/newlib-gcc/newlib/libc/stdio/stdio.c:48
   12778:	059000ef          	jal	12fd0 <read>
/home/lucas/Documents/summerwork2015/riscv-material/riscv-tools/riscv-gnu-toolchain/build/src/newlib-gcc/newlib/libc/stdio/stdio.c:57
   1277c:	02054063          	bltz	a0,1279c <__sread+0x40>
/home/lucas/Documents/summerwork2015/riscv-material/riscv-tools/riscv-gnu-toolchain/build/src/newlib-gcc/newlib/libc/stdio/stdio.c:58
   12780:	08c42783          	lw	a5,140(s0)
/home/lucas/Documents/summerwork2015/riscv-material/riscv-tools/riscv-gnu-toolchain/build/src/newlib-gcc/newlib/libc/stdio/stdio.c:62
   12784:	00813083          	ld	ra,8(sp)
/home/lucas/Documents/summerwork2015/riscv-material/riscv-tools/riscv-gnu-toolchain/build/src/newlib-gcc/newlib/libc/stdio/stdio.c:58
   12788:	00a787bb          	addw	a5,a5,a0
   1278c:	08f42623          	sw	a5,140(s0)
/home/lucas/Documents/summerwork2015/riscv-material/riscv-tools/riscv-gnu-toolchain/build/src/newlib-gcc/newlib/libc/stdio/stdio.c:62
   12790:	00013403          	ld	s0,0(sp)
   12794:	01010113          	addi	sp,sp,16
   12798:	00008067          	ret
/home/lucas/Documents/summerwork2015/riscv-material/riscv-tools/riscv-gnu-toolchain/build/src/newlib-gcc/newlib/libc/stdio/stdio.c:60
   1279c:	01045703          	lhu	a4,16(s0)
   127a0:	fffff7b7          	lui	a5,0xfffff
/home/lucas/Documents/summerwork2015/riscv-material/riscv-tools/riscv-gnu-toolchain/build/src/newlib-gcc/newlib/libc/stdio/stdio.c:62
   127a4:	00813083          	ld	ra,8(sp)
/home/lucas/Documents/summerwork2015/riscv-material/riscv-tools/riscv-gnu-toolchain/build/src/newlib-gcc/newlib/libc/stdio/stdio.c:60
   127a8:	fff7879b          	addiw	a5,a5,-1
   127ac:	00f777b3          	and	a5,a4,a5
   127b0:	00f41823          	sh	a5,16(s0)
/home/lucas/Documents/summerwork2015/riscv-material/riscv-tools/riscv-gnu-toolchain/build/src/newlib-gcc/newlib/libc/stdio/stdio.c:62
   127b4:	00013403          	ld	s0,0(sp)
   127b8:	01010113          	addi	sp,sp,16
   127bc:	00008067          	ret

00000000000127c0 <__seofread>:
__seofread():
/home/lucas/Documents/summerwork2015/riscv-material/riscv-tools/riscv-gnu-toolchain/build/src/newlib-gcc/newlib/libc/stdio/stdio.c:73
   127c0:	00000513          	li	a0,0
   127c4:	00008067          	ret

00000000000127c8 <__swrite>:
__swrite():
/home/lucas/Documents/summerwork2015/riscv-material/riscv-tools/riscv-gnu-toolchain/build/src/newlib-gcc/newlib/libc/stdio/stdio.c:88
   127c8:	01059703          	lh	a4,16(a1)
/home/lucas/Documents/summerwork2015/riscv-material/riscv-tools/riscv-gnu-toolchain/build/src/newlib-gcc/newlib/libc/stdio/stdio.c:81
   127cc:	fd010113          	addi	sp,sp,-48
   127d0:	02813023          	sd	s0,32(sp)
/home/lucas/Documents/summerwork2015/riscv-material/riscv-tools/riscv-gnu-toolchain/build/src/newlib-gcc/newlib/libc/stdio/stdio.c:88
   127d4:	10077793          	andi	a5,a4,256
/home/lucas/Documents/summerwork2015/riscv-material/riscv-tools/riscv-gnu-toolchain/build/src/newlib-gcc/newlib/libc/stdio/stdio.c:81
   127d8:	00913c23          	sd	s1,24(sp)
   127dc:	02113423          	sd	ra,40(sp)
   127e0:	00058413          	mv	s0,a1
   127e4:	00060493          	mv	s1,a2
/home/lucas/Documents/summerwork2015/riscv-material/riscv-tools/riscv-gnu-toolchain/build/src/newlib-gcc/newlib/libc/stdio/stdio.c:88
   127e8:	02078063          	beqz	a5,12808 <__swrite+0x40>
/home/lucas/Documents/summerwork2015/riscv-material/riscv-tools/riscv-gnu-toolchain/build/src/newlib-gcc/newlib/libc/stdio/stdio.c:89
   127ec:	01259503          	lh	a0,18(a1)
   127f0:	00200613          	li	a2,2
   127f4:	00000593          	li	a1,0
   127f8:	00d13423          	sd	a3,8(sp)
   127fc:	7c0000ef          	jal	12fbc <lseek>
   12800:	01041703          	lh	a4,16(s0)
   12804:	00813683          	ld	a3,8(sp)
/home/lucas/Documents/summerwork2015/riscv-material/riscv-tools/riscv-gnu-toolchain/build/src/newlib-gcc/newlib/libc/stdio/stdio.c:90
   12808:	fffff7b7          	lui	a5,0xfffff
   1280c:	fff7879b          	addiw	a5,a5,-1
   12810:	00f777b3          	and	a5,a4,a5
/home/lucas/Documents/summerwork2015/riscv-material/riscv-tools/riscv-gnu-toolchain/build/src/newlib-gcc/newlib/libc/stdio/stdio.c:97
   12814:	01241503          	lh	a0,18(s0)
/home/lucas/Documents/summerwork2015/riscv-material/riscv-tools/riscv-gnu-toolchain/build/src/newlib-gcc/newlib/libc/stdio/stdio.c:90
   12818:	00f41823          	sh	a5,16(s0)
/home/lucas/Documents/summerwork2015/riscv-material/riscv-tools/riscv-gnu-toolchain/build/src/newlib-gcc/newlib/libc/stdio/stdio.c:97
   1281c:	00048593          	mv	a1,s1
/home/lucas/Documents/summerwork2015/riscv-material/riscv-tools/riscv-gnu-toolchain/build/src/newlib-gcc/newlib/libc/stdio/stdio.c:105
   12820:	02813083          	ld	ra,40(sp)
   12824:	02013403          	ld	s0,32(sp)
   12828:	01813483          	ld	s1,24(sp)
/home/lucas/Documents/summerwork2015/riscv-material/riscv-tools/riscv-gnu-toolchain/build/src/newlib-gcc/newlib/libc/stdio/stdio.c:97
   1282c:	00068613          	mv	a2,a3
/home/lucas/Documents/summerwork2015/riscv-material/riscv-tools/riscv-gnu-toolchain/build/src/newlib-gcc/newlib/libc/stdio/stdio.c:105
   12830:	03010113          	addi	sp,sp,48
/home/lucas/Documents/summerwork2015/riscv-material/riscv-tools/riscv-gnu-toolchain/build/src/newlib-gcc/newlib/libc/stdio/stdio.c:97
   12834:	7b40006f          	j	12fe8 <write>

0000000000012838 <__sseek>:
__sseek():
/home/lucas/Documents/summerwork2015/riscv-material/riscv-tools/riscv-gnu-toolchain/build/src/newlib-gcc/newlib/libc/stdio/stdio.c:117
   12838:	01259503          	lh	a0,18(a1)
/home/lucas/Documents/summerwork2015/riscv-material/riscv-tools/riscv-gnu-toolchain/build/src/newlib-gcc/newlib/libc/stdio/stdio.c:113
   1283c:	ff010113          	addi	sp,sp,-16
   12840:	00813023          	sd	s0,0(sp)
   12844:	00058413          	mv	s0,a1
/home/lucas/Documents/summerwork2015/riscv-material/riscv-tools/riscv-gnu-toolchain/build/src/newlib-gcc/newlib/libc/stdio/stdio.c:117
   12848:	00060593          	mv	a1,a2
   1284c:	00068613          	mv	a2,a3
/home/lucas/Documents/summerwork2015/riscv-material/riscv-tools/riscv-gnu-toolchain/build/src/newlib-gcc/newlib/libc/stdio/stdio.c:113
   12850:	00113423          	sd	ra,8(sp)
/home/lucas/Documents/summerwork2015/riscv-material/riscv-tools/riscv-gnu-toolchain/build/src/newlib-gcc/newlib/libc/stdio/stdio.c:117
   12854:	768000ef          	jal	12fbc <lseek>
/home/lucas/Documents/summerwork2015/riscv-material/riscv-tools/riscv-gnu-toolchain/build/src/newlib-gcc/newlib/libc/stdio/stdio.c:118
   12858:	fff00793          	li	a5,-1
/home/lucas/Documents/summerwork2015/riscv-material/riscv-tools/riscv-gnu-toolchain/build/src/newlib-gcc/newlib/libc/stdio/stdio.c:119
   1285c:	01045703          	lhu	a4,16(s0)
/home/lucas/Documents/summerwork2015/riscv-material/riscv-tools/riscv-gnu-toolchain/build/src/newlib-gcc/newlib/libc/stdio/stdio.c:118
   12860:	02f50263          	beq	a0,a5,12884 <__sseek+0x4c>
/home/lucas/Documents/summerwork2015/riscv-material/riscv-tools/riscv-gnu-toolchain/build/src/newlib-gcc/newlib/libc/stdio/stdio.c:126
   12864:	00813083          	ld	ra,8(sp)
/home/lucas/Documents/summerwork2015/riscv-material/riscv-tools/riscv-gnu-toolchain/build/src/newlib-gcc/newlib/libc/stdio/stdio.c:122
   12868:	000017b7          	lui	a5,0x1
   1286c:	00f767b3          	or	a5,a4,a5
/home/lucas/Documents/summerwork2015/riscv-material/riscv-tools/riscv-gnu-toolchain/build/src/newlib-gcc/newlib/libc/stdio/stdio.c:123
   12870:	08a42623          	sw	a0,140(s0)
/home/lucas/Documents/summerwork2015/riscv-material/riscv-tools/riscv-gnu-toolchain/build/src/newlib-gcc/newlib/libc/stdio/stdio.c:122
   12874:	00f41823          	sh	a5,16(s0)
/home/lucas/Documents/summerwork2015/riscv-material/riscv-tools/riscv-gnu-toolchain/build/src/newlib-gcc/newlib/libc/stdio/stdio.c:126
   12878:	00013403          	ld	s0,0(sp)
   1287c:	01010113          	addi	sp,sp,16
   12880:	00008067          	ret
/home/lucas/Documents/summerwork2015/riscv-material/riscv-tools/riscv-gnu-toolchain/build/src/newlib-gcc/newlib/libc/stdio/stdio.c:119
   12884:	fffff7b7          	lui	a5,0xfffff
/home/lucas/Documents/summerwork2015/riscv-material/riscv-tools/riscv-gnu-toolchain/build/src/newlib-gcc/newlib/libc/stdio/stdio.c:126
   12888:	00813083          	ld	ra,8(sp)
/home/lucas/Documents/summerwork2015/riscv-material/riscv-tools/riscv-gnu-toolchain/build/src/newlib-gcc/newlib/libc/stdio/stdio.c:119
   1288c:	fff7879b          	addiw	a5,a5,-1
   12890:	00f777b3          	and	a5,a4,a5
   12894:	00f41823          	sh	a5,16(s0)
/home/lucas/Documents/summerwork2015/riscv-material/riscv-tools/riscv-gnu-toolchain/build/src/newlib-gcc/newlib/libc/stdio/stdio.c:126
   12898:	00013403          	ld	s0,0(sp)
   1289c:	01010113          	addi	sp,sp,16
   128a0:	00008067          	ret

00000000000128a4 <__sclose>:
__sclose():
/home/lucas/Documents/summerwork2015/riscv-material/riscv-tools/riscv-gnu-toolchain/build/src/newlib-gcc/newlib/libc/stdio/stdio.c:135
   128a4:	01259503          	lh	a0,18(a1)
   128a8:	7f00006f          	j	13098 <close>

00000000000128ac <__swsetup_r>:
__swsetup_r():
/home/lucas/Documents/summerwork2015/riscv-material/riscv-tools/riscv-gnu-toolchain/build/src/newlib-gcc/newlib/libc/stdio/wsetup.c:38
   128ac:	8101b783          	ld	a5,-2032(gp) # 14e80 <_impure_ptr>
/home/lucas/Documents/summerwork2015/riscv-material/riscv-tools/riscv-gnu-toolchain/build/src/newlib-gcc/newlib/libc/stdio/wsetup.c:35
   128b0:	fe010113          	addi	sp,sp,-32
   128b4:	00813823          	sd	s0,16(sp)
   128b8:	00913423          	sd	s1,8(sp)
   128bc:	00113c23          	sd	ra,24(sp)
   128c0:	00050493          	mv	s1,a0
   128c4:	00058413          	mv	s0,a1
/home/lucas/Documents/summerwork2015/riscv-material/riscv-tools/riscv-gnu-toolchain/build/src/newlib-gcc/newlib/libc/stdio/wsetup.c:38
   128c8:	00078663          	beqz	a5,128d4 <__swsetup_r+0x28>
/home/lucas/Documents/summerwork2015/riscv-material/riscv-tools/riscv-gnu-toolchain/build/src/newlib-gcc/newlib/libc/stdio/wsetup.c:38 (discriminator 1)
   128cc:	0507a703          	lw	a4,80(a5) # fffffffffffff050 <_gp+0xfffffffffffe99e0>
   128d0:	0c070c63          	beqz	a4,129a8 <__swsetup_r+0xfc>
/home/lucas/Documents/summerwork2015/riscv-material/riscv-tools/riscv-gnu-toolchain/build/src/newlib-gcc/newlib/libc/stdio/wsetup.c:44
   128d4:	01041703          	lh	a4,16(s0)
   128d8:	03071793          	slli	a5,a4,0x30
   128dc:	0307d793          	srli	a5,a5,0x30
   128e0:	0087f693          	andi	a3,a5,8
   128e4:	04068263          	beqz	a3,12928 <__swsetup_r+0x7c>
   128e8:	01843683          	ld	a3,24(s0)
/home/lucas/Documents/summerwork2015/riscv-material/riscv-tools/riscv-gnu-toolchain/build/src/newlib-gcc/newlib/libc/stdio/wsetup.c:65
   128ec:	06068663          	beqz	a3,12958 <__swsetup_r+0xac>
/home/lucas/Documents/summerwork2015/riscv-material/riscv-tools/riscv-gnu-toolchain/build/src/newlib-gcc/newlib/libc/stdio/wsetup.c:69
   128f0:	0017f713          	andi	a4,a5,1
   128f4:	08071463          	bnez	a4,1297c <__swsetup_r+0xd0>
/home/lucas/Documents/summerwork2015/riscv-material/riscv-tools/riscv-gnu-toolchain/build/src/newlib-gcc/newlib/libc/stdio/wsetup.c:80
   128f8:	0027f793          	andi	a5,a5,2
   128fc:	00000713          	li	a4,0
   12900:	00079463          	bnez	a5,12908 <__swsetup_r+0x5c>
/home/lucas/Documents/summerwork2015/riscv-material/riscv-tools/riscv-gnu-toolchain/build/src/newlib-gcc/newlib/libc/stdio/wsetup.c:80 (discriminator 1)
   12904:	02042703          	lw	a4,32(s0)
/home/lucas/Documents/summerwork2015/riscv-material/riscv-tools/riscv-gnu-toolchain/build/src/newlib-gcc/newlib/libc/stdio/wsetup.c:80 (discriminator 4)
   12908:	00e42623          	sw	a4,12(s0)
/home/lucas/Documents/summerwork2015/riscv-material/riscv-tools/riscv-gnu-toolchain/build/src/newlib-gcc/newlib/libc/stdio/wsetup.c:82
   1290c:	00000513          	li	a0,0
   12910:	08068263          	beqz	a3,12994 <__swsetup_r+0xe8>
/home/lucas/Documents/summerwork2015/riscv-material/riscv-tools/riscv-gnu-toolchain/build/src/newlib-gcc/newlib/libc/stdio/wsetup.c:83
   12914:	01813083          	ld	ra,24(sp)
   12918:	01013403          	ld	s0,16(sp)
   1291c:	00813483          	ld	s1,8(sp)
   12920:	02010113          	addi	sp,sp,32
   12924:	00008067          	ret
/home/lucas/Documents/summerwork2015/riscv-material/riscv-tools/riscv-gnu-toolchain/build/src/newlib-gcc/newlib/libc/stdio/wsetup.c:46
   12928:	0107f693          	andi	a3,a5,16
   1292c:	06068a63          	beqz	a3,129a0 <__swsetup_r+0xf4>
/home/lucas/Documents/summerwork2015/riscv-material/riscv-tools/riscv-gnu-toolchain/build/src/newlib-gcc/newlib/libc/stdio/wsetup.c:48
   12930:	0047f793          	andi	a5,a5,4
   12934:	08079063          	bnez	a5,129b4 <__swsetup_r+0x108>
   12938:	01843683          	ld	a3,24(s0)
/home/lucas/Documents/summerwork2015/riscv-material/riscv-tools/riscv-gnu-toolchain/build/src/newlib-gcc/newlib/libc/stdio/wsetup.c:57
   1293c:	00876793          	ori	a5,a4,8
   12940:	0107979b          	slliw	a5,a5,0x10
   12944:	4107d79b          	sraiw	a5,a5,0x10
   12948:	00f41823          	sh	a5,16(s0)
   1294c:	03079793          	slli	a5,a5,0x30
   12950:	0307d793          	srli	a5,a5,0x30
/home/lucas/Documents/summerwork2015/riscv-material/riscv-tools/riscv-gnu-toolchain/build/src/newlib-gcc/newlib/libc/stdio/wsetup.c:65
   12954:	f8069ee3          	bnez	a3,128f0 <__swsetup_r+0x44>
/home/lucas/Documents/summerwork2015/riscv-material/riscv-tools/riscv-gnu-toolchain/build/src/newlib-gcc/newlib/libc/stdio/wsetup.c:66
   12958:	2807f713          	andi	a4,a5,640
   1295c:	20000613          	li	a2,512
   12960:	f8c708e3          	beq	a4,a2,128f0 <__swsetup_r+0x44>
/home/lucas/Documents/summerwork2015/riscv-material/riscv-tools/riscv-gnu-toolchain/build/src/newlib-gcc/newlib/libc/stdio/wsetup.c:67
   12964:	00040593          	mv	a1,s0
   12968:	00048513          	mv	a0,s1
   1296c:	448000ef          	jal	12db4 <__smakebuf_r>
   12970:	01045783          	lhu	a5,16(s0)
   12974:	01843683          	ld	a3,24(s0)
   12978:	f79ff06f          	j	128f0 <__swsetup_r+0x44>
/home/lucas/Documents/summerwork2015/riscv-material/riscv-tools/riscv-gnu-toolchain/build/src/newlib-gcc/newlib/libc/stdio/wsetup.c:77
   1297c:	02042783          	lw	a5,32(s0)
/home/lucas/Documents/summerwork2015/riscv-material/riscv-tools/riscv-gnu-toolchain/build/src/newlib-gcc/newlib/libc/stdio/wsetup.c:76
   12980:	00042623          	sw	zero,12(s0)
/home/lucas/Documents/summerwork2015/riscv-material/riscv-tools/riscv-gnu-toolchain/build/src/newlib-gcc/newlib/libc/stdio/wsetup.c:82
   12984:	00000513          	li	a0,0
/home/lucas/Documents/summerwork2015/riscv-material/riscv-tools/riscv-gnu-toolchain/build/src/newlib-gcc/newlib/libc/stdio/wsetup.c:77
   12988:	40f007bb          	negw	a5,a5
   1298c:	02f42423          	sw	a5,40(s0)
/home/lucas/Documents/summerwork2015/riscv-material/riscv-tools/riscv-gnu-toolchain/build/src/newlib-gcc/newlib/libc/stdio/wsetup.c:82
   12990:	f80692e3          	bnez	a3,12914 <__swsetup_r+0x68>
/home/lucas/Documents/summerwork2015/riscv-material/riscv-tools/riscv-gnu-toolchain/build/src/newlib-gcc/newlib/libc/stdio/wsetup.c:82 (discriminator 1)
   12994:	01045783          	lhu	a5,16(s0)
   12998:	0807f793          	andi	a5,a5,128
   1299c:	f6078ce3          	beqz	a5,12914 <__swsetup_r+0x68>
/home/lucas/Documents/summerwork2015/riscv-material/riscv-tools/riscv-gnu-toolchain/build/src/newlib-gcc/newlib/libc/stdio/wsetup.c:47
   129a0:	fff00513          	li	a0,-1
   129a4:	f71ff06f          	j	12914 <__swsetup_r+0x68>
/home/lucas/Documents/summerwork2015/riscv-material/riscv-tools/riscv-gnu-toolchain/build/src/newlib-gcc/newlib/libc/stdio/wsetup.c:38 (discriminator 2)
   129a8:	00078513          	mv	a0,a5
   129ac:	9c5fe0ef          	jal	11370 <__sinit>
   129b0:	f25ff06f          	j	128d4 <__swsetup_r+0x28>
/home/lucas/Documents/summerwork2015/riscv-material/riscv-tools/riscv-gnu-toolchain/build/src/newlib-gcc/newlib/libc/stdio/wsetup.c:51
   129b4:	05843583          	ld	a1,88(s0)
   129b8:	00058e63          	beqz	a1,129d4 <__swsetup_r+0x128>
/home/lucas/Documents/summerwork2015/riscv-material/riscv-tools/riscv-gnu-toolchain/build/src/newlib-gcc/newlib/libc/stdio/wsetup.c:52
   129bc:	07440793          	addi	a5,s0,116
   129c0:	00f58863          	beq	a1,a5,129d0 <__swsetup_r+0x124>
/home/lucas/Documents/summerwork2015/riscv-material/riscv-tools/riscv-gnu-toolchain/build/src/newlib-gcc/newlib/libc/stdio/wsetup.c:52 (discriminator 1)
   129c4:	00048513          	mv	a0,s1
   129c8:	b01fe0ef          	jal	114c8 <_free_r>
   129cc:	01041703          	lh	a4,16(s0)
/home/lucas/Documents/summerwork2015/riscv-material/riscv-tools/riscv-gnu-toolchain/build/src/newlib-gcc/newlib/libc/stdio/wsetup.c:52 (discriminator 3)
   129d0:	04043c23          	sd	zero,88(s0)
/home/lucas/Documents/summerwork2015/riscv-material/riscv-tools/riscv-gnu-toolchain/build/src/newlib-gcc/newlib/libc/stdio/wsetup.c:55
   129d4:	01843683          	ld	a3,24(s0)
/home/lucas/Documents/summerwork2015/riscv-material/riscv-tools/riscv-gnu-toolchain/build/src/newlib-gcc/newlib/libc/stdio/wsetup.c:53
   129d8:	fdb77713          	andi	a4,a4,-37
   129dc:	0107171b          	slliw	a4,a4,0x10
   129e0:	4107571b          	sraiw	a4,a4,0x10
/home/lucas/Documents/summerwork2015/riscv-material/riscv-tools/riscv-gnu-toolchain/build/src/newlib-gcc/newlib/libc/stdio/wsetup.c:54
   129e4:	00042423          	sw	zero,8(s0)
/home/lucas/Documents/summerwork2015/riscv-material/riscv-tools/riscv-gnu-toolchain/build/src/newlib-gcc/newlib/libc/stdio/wsetup.c:55
   129e8:	00d43023          	sd	a3,0(s0)
   129ec:	f51ff06f          	j	1293c <__swsetup_r+0x90>

00000000000129f0 <_fclose_r>:
_fclose_r():
/home/lucas/Documents/summerwork2015/riscv-material/riscv-tools/riscv-gnu-toolchain/build/src/newlib-gcc/newlib/libc/stdio/fclose.c:74
   129f0:	0e058063          	beqz	a1,12ad0 <_fclose_r+0xe0>
/home/lucas/Documents/summerwork2015/riscv-material/riscv-tools/riscv-gnu-toolchain/build/src/newlib-gcc/newlib/libc/stdio/fclose.c:71
   129f4:	fe010113          	addi	sp,sp,-32
   129f8:	00913423          	sd	s1,8(sp)
   129fc:	00050493          	mv	s1,a0
   12a00:	00813823          	sd	s0,16(sp)
   12a04:	00113c23          	sd	ra,24(sp)
   12a08:	01213023          	sd	s2,0(sp)
   12a0c:	00058413          	mv	s0,a1
/home/lucas/Documents/summerwork2015/riscv-material/riscv-tools/riscv-gnu-toolchain/build/src/newlib-gcc/newlib/libc/stdio/fclose.c:77
   12a10:	971fe0ef          	jal	11380 <__sfp_lock_acquire>
/home/lucas/Documents/summerwork2015/riscv-material/riscv-tools/riscv-gnu-toolchain/build/src/newlib-gcc/newlib/libc/stdio/fclose.c:79
   12a14:	00048663          	beqz	s1,12a20 <_fclose_r+0x30>
/home/lucas/Documents/summerwork2015/riscv-material/riscv-tools/riscv-gnu-toolchain/build/src/newlib-gcc/newlib/libc/stdio/fclose.c:79 (discriminator 1)
   12a18:	0504a783          	lw	a5,80(s1)
   12a1c:	0a078e63          	beqz	a5,12ad8 <_fclose_r+0xe8>
/home/lucas/Documents/summerwork2015/riscv-material/riscv-tools/riscv-gnu-toolchain/build/src/newlib-gcc/newlib/libc/stdio/fclose.c:83
   12a20:	01041783          	lh	a5,16(s0)
   12a24:	08078663          	beqz	a5,12ab0 <_fclose_r+0xc0>
/home/lucas/Documents/summerwork2015/riscv-material/riscv-tools/riscv-gnu-toolchain/build/src/newlib-gcc/newlib/libc/stdio/fclose.c:92
   12a28:	00040593          	mv	a1,s0
   12a2c:	00048513          	mv	a0,s1
   12a30:	0e0000ef          	jal	12b10 <_fflush_r>
/home/lucas/Documents/summerwork2015/riscv-material/riscv-tools/riscv-gnu-toolchain/build/src/newlib-gcc/newlib/libc/stdio/fclose.c:93
   12a34:	05043783          	ld	a5,80(s0)
/home/lucas/Documents/summerwork2015/riscv-material/riscv-tools/riscv-gnu-toolchain/build/src/newlib-gcc/newlib/libc/stdio/fclose.c:92
   12a38:	00050913          	mv	s2,a0
/home/lucas/Documents/summerwork2015/riscv-material/riscv-tools/riscv-gnu-toolchain/build/src/newlib-gcc/newlib/libc/stdio/fclose.c:93
   12a3c:	00078a63          	beqz	a5,12a50 <_fclose_r+0x60>
   12a40:	03043583          	ld	a1,48(s0)
   12a44:	00048513          	mv	a0,s1
   12a48:	000780e7          	jalr	a5
   12a4c:	0a054863          	bltz	a0,12afc <_fclose_r+0x10c>
/home/lucas/Documents/summerwork2015/riscv-material/riscv-tools/riscv-gnu-toolchain/build/src/newlib-gcc/newlib/libc/stdio/fclose.c:95
   12a50:	01045783          	lhu	a5,16(s0)
   12a54:	0807f793          	andi	a5,a5,128
   12a58:	08079a63          	bnez	a5,12aec <_fclose_r+0xfc>
/home/lucas/Documents/summerwork2015/riscv-material/riscv-tools/riscv-gnu-toolchain/build/src/newlib-gcc/newlib/libc/stdio/fclose.c:97
   12a5c:	05843583          	ld	a1,88(s0)
   12a60:	00058c63          	beqz	a1,12a78 <_fclose_r+0x88>
/home/lucas/Documents/summerwork2015/riscv-material/riscv-tools/riscv-gnu-toolchain/build/src/newlib-gcc/newlib/libc/stdio/fclose.c:98
   12a64:	07440793          	addi	a5,s0,116
   12a68:	00f58663          	beq	a1,a5,12a74 <_fclose_r+0x84>
   12a6c:	00048513          	mv	a0,s1
   12a70:	a59fe0ef          	jal	114c8 <_free_r>
   12a74:	04043c23          	sd	zero,88(s0)
/home/lucas/Documents/summerwork2015/riscv-material/riscv-tools/riscv-gnu-toolchain/build/src/newlib-gcc/newlib/libc/stdio/fclose.c:99
   12a78:	07843583          	ld	a1,120(s0)
   12a7c:	00058863          	beqz	a1,12a8c <_fclose_r+0x9c>
/home/lucas/Documents/summerwork2015/riscv-material/riscv-tools/riscv-gnu-toolchain/build/src/newlib-gcc/newlib/libc/stdio/fclose.c:100
   12a80:	00048513          	mv	a0,s1
   12a84:	a45fe0ef          	jal	114c8 <_free_r>
   12a88:	06043c23          	sd	zero,120(s0)
/home/lucas/Documents/summerwork2015/riscv-material/riscv-tools/riscv-gnu-toolchain/build/src/newlib-gcc/newlib/libc/stdio/fclose.c:101
   12a8c:	00041823          	sh	zero,16(s0)
/home/lucas/Documents/summerwork2015/riscv-material/riscv-tools/riscv-gnu-toolchain/build/src/newlib-gcc/newlib/libc/stdio/fclose.c:107
   12a90:	8f5fe0ef          	jal	11384 <__sfp_lock_release>
/home/lucas/Documents/summerwork2015/riscv-material/riscv-tools/riscv-gnu-toolchain/build/src/newlib-gcc/newlib/libc/stdio/fclose.c:110
   12a94:	01813083          	ld	ra,24(sp)
/home/lucas/Documents/summerwork2015/riscv-material/riscv-tools/riscv-gnu-toolchain/build/src/newlib-gcc/newlib/libc/stdio/fclose.c:107
   12a98:	00090513          	mv	a0,s2
/home/lucas/Documents/summerwork2015/riscv-material/riscv-tools/riscv-gnu-toolchain/build/src/newlib-gcc/newlib/libc/stdio/fclose.c:110
   12a9c:	01013403          	ld	s0,16(sp)
   12aa0:	00813483          	ld	s1,8(sp)
   12aa4:	00013903          	ld	s2,0(sp)
   12aa8:	02010113          	addi	sp,sp,32
   12aac:	00008067          	ret
/home/lucas/Documents/summerwork2015/riscv-material/riscv-tools/riscv-gnu-toolchain/build/src/newlib-gcc/newlib/libc/stdio/fclose.c:86
   12ab0:	8d5fe0ef          	jal	11384 <__sfp_lock_release>
/home/lucas/Documents/summerwork2015/riscv-material/riscv-tools/riscv-gnu-toolchain/build/src/newlib-gcc/newlib/libc/stdio/fclose.c:110
   12ab4:	01813083          	ld	ra,24(sp)
/home/lucas/Documents/summerwork2015/riscv-material/riscv-tools/riscv-gnu-toolchain/build/src/newlib-gcc/newlib/libc/stdio/fclose.c:87
   12ab8:	00000513          	li	a0,0
/home/lucas/Documents/summerwork2015/riscv-material/riscv-tools/riscv-gnu-toolchain/build/src/newlib-gcc/newlib/libc/stdio/fclose.c:110
   12abc:	01013403          	ld	s0,16(sp)
   12ac0:	00813483          	ld	s1,8(sp)
   12ac4:	00013903          	ld	s2,0(sp)
   12ac8:	02010113          	addi	sp,sp,32
   12acc:	00008067          	ret
/home/lucas/Documents/summerwork2015/riscv-material/riscv-tools/riscv-gnu-toolchain/build/src/newlib-gcc/newlib/libc/stdio/fclose.c:75
   12ad0:	00000513          	li	a0,0
   12ad4:	00008067          	ret
/home/lucas/Documents/summerwork2015/riscv-material/riscv-tools/riscv-gnu-toolchain/build/src/newlib-gcc/newlib/libc/stdio/fclose.c:79 (discriminator 2)
   12ad8:	00048513          	mv	a0,s1
   12adc:	895fe0ef          	jal	11370 <__sinit>
/home/lucas/Documents/summerwork2015/riscv-material/riscv-tools/riscv-gnu-toolchain/build/src/newlib-gcc/newlib/libc/stdio/fclose.c:83
   12ae0:	01041783          	lh	a5,16(s0)
   12ae4:	f40792e3          	bnez	a5,12a28 <_fclose_r+0x38>
   12ae8:	fc9ff06f          	j	12ab0 <_fclose_r+0xc0>
/home/lucas/Documents/summerwork2015/riscv-material/riscv-tools/riscv-gnu-toolchain/build/src/newlib-gcc/newlib/libc/stdio/fclose.c:96
   12aec:	01843583          	ld	a1,24(s0)
   12af0:	00048513          	mv	a0,s1
   12af4:	9d5fe0ef          	jal	114c8 <_free_r>
   12af8:	f65ff06f          	j	12a5c <_fclose_r+0x6c>
/home/lucas/Documents/summerwork2015/riscv-material/riscv-tools/riscv-gnu-toolchain/build/src/newlib-gcc/newlib/libc/stdio/fclose.c:94
   12afc:	fff00913          	li	s2,-1
   12b00:	f51ff06f          	j	12a50 <_fclose_r+0x60>

0000000000012b04 <fclose>:
fclose():
/home/lucas/Documents/summerwork2015/riscv-material/riscv-tools/riscv-gnu-toolchain/build/src/newlib-gcc/newlib/libc/stdio/fclose.c:118
   12b04:	00050593          	mv	a1,a0
   12b08:	8101b503          	ld	a0,-2032(gp) # 14e80 <_impure_ptr>
   12b0c:	ee5ff06f          	j	129f0 <_fclose_r>

0000000000012b10 <_fflush_r>:
_fflush_r():
/home/lucas/Documents/summerwork2015/riscv-material/riscv-tools/riscv-gnu-toolchain/build/src/newlib-gcc/newlib/libc/stdio/fflush.c:74
   12b10:	fd010113          	addi	sp,sp,-48
   12b14:	02813023          	sd	s0,32(sp)
   12b18:	01313423          	sd	s3,8(sp)
   12b1c:	02113423          	sd	ra,40(sp)
   12b20:	00913c23          	sd	s1,24(sp)
   12b24:	01213823          	sd	s2,16(sp)
   12b28:	00050993          	mv	s3,a0
   12b2c:	00058413          	mv	s0,a1
/home/lucas/Documents/summerwork2015/riscv-material/riscv-tools/riscv-gnu-toolchain/build/src/newlib-gcc/newlib/libc/stdio/fflush.c:94
   12b30:	00050663          	beqz	a0,12b3c <_fflush_r+0x2c>
/home/lucas/Documents/summerwork2015/riscv-material/riscv-tools/riscv-gnu-toolchain/build/src/newlib-gcc/newlib/libc/stdio/fflush.c:94 (discriminator 1)
   12b34:	05052783          	lw	a5,80(a0)
   12b38:	18078463          	beqz	a5,12cc0 <_fflush_r+0x1b0>
/home/lucas/Documents/summerwork2015/riscv-material/riscv-tools/riscv-gnu-toolchain/build/src/newlib-gcc/newlib/libc/stdio/fflush.c:96
   12b3c:	01041703          	lh	a4,16(s0)
   12b40:	0c070e63          	beqz	a4,12c1c <_fflush_r+0x10c>
/home/lucas/Documents/summerwork2015/riscv-material/riscv-tools/riscv-gnu-toolchain/build/src/newlib-gcc/newlib/libc/stdio/fflush.c:102
   12b44:	00877793          	andi	a5,a4,8
   12b48:	0e079a63          	bnez	a5,12c3c <_fflush_r+0x12c>
/home/lucas/Documents/summerwork2015/riscv-material/riscv-tools/riscv-gnu-toolchain/build/src/newlib-gcc/newlib/libc/stdio/fflush.c:107
   12b4c:	000017b7          	lui	a5,0x1
   12b50:	8007879b          	addiw	a5,a5,-2048
   12b54:	00f767b3          	or	a5,a4,a5
/home/lucas/Documents/summerwork2015/riscv-material/riscv-tools/riscv-gnu-toolchain/build/src/newlib-gcc/newlib/libc/stdio/fflush.c:116
   12b58:	00842683          	lw	a3,8(s0)
/home/lucas/Documents/summerwork2015/riscv-material/riscv-tools/riscv-gnu-toolchain/build/src/newlib-gcc/newlib/libc/stdio/fflush.c:107
   12b5c:	0107979b          	slliw	a5,a5,0x10
   12b60:	4107d79b          	sraiw	a5,a5,0x10
   12b64:	00f41823          	sh	a5,16(s0)
/home/lucas/Documents/summerwork2015/riscv-material/riscv-tools/riscv-gnu-toolchain/build/src/newlib-gcc/newlib/libc/stdio/fflush.c:116
   12b68:	18d05a63          	blez	a3,12cfc <_fflush_r+0x1ec>
/home/lucas/Documents/summerwork2015/riscv-material/riscv-tools/riscv-gnu-toolchain/build/src/newlib-gcc/newlib/libc/stdio/fflush.c:116 (discriminator 3)
   12b6c:	04843703          	ld	a4,72(s0)
   12b70:	0a070663          	beqz	a4,12c1c <_fflush_r+0x10c>
/home/lucas/Documents/summerwork2015/riscv-material/riscv-tools/riscv-gnu-toolchain/build/src/newlib-gcc/newlib/libc/stdio/fflush.c:131
   12b74:	03079793          	slli	a5,a5,0x30
   12b78:	0307d793          	srli	a5,a5,0x30
   12b7c:	03379693          	slli	a3,a5,0x33
/home/lucas/Documents/summerwork2015/riscv-material/riscv-tools/riscv-gnu-toolchain/build/src/newlib-gcc/newlib/libc/stdio/fflush.c:128
   12b80:	0009a483          	lw	s1,0(s3)
/home/lucas/Documents/summerwork2015/riscv-material/riscv-tools/riscv-gnu-toolchain/build/src/newlib-gcc/newlib/libc/stdio/fflush.c:129
   12b84:	0009a023          	sw	zero,0(s3)
/home/lucas/Documents/summerwork2015/riscv-material/riscv-tools/riscv-gnu-toolchain/build/src/newlib-gcc/newlib/libc/stdio/fflush.c:131
   12b88:	1406d463          	bgez	a3,12cd0 <_fflush_r+0x1c0>
/home/lucas/Documents/summerwork2015/riscv-material/riscv-tools/riscv-gnu-toolchain/build/src/newlib-gcc/newlib/libc/stdio/fflush.c:132
   12b8c:	08c42603          	lw	a2,140(s0)
/home/lucas/Documents/summerwork2015/riscv-material/riscv-tools/riscv-gnu-toolchain/build/src/newlib-gcc/newlib/libc/stdio/fflush.c:157
   12b90:	0047f793          	andi	a5,a5,4
   12b94:	00078e63          	beqz	a5,12bb0 <_fflush_r+0xa0>
/home/lucas/Documents/summerwork2015/riscv-material/riscv-tools/riscv-gnu-toolchain/build/src/newlib-gcc/newlib/libc/stdio/fflush.c:161
   12b98:	00842683          	lw	a3,8(s0)
/home/lucas/Documents/summerwork2015/riscv-material/riscv-tools/riscv-gnu-toolchain/build/src/newlib-gcc/newlib/libc/stdio/fflush.c:162
   12b9c:	05843783          	ld	a5,88(s0)
/home/lucas/Documents/summerwork2015/riscv-material/riscv-tools/riscv-gnu-toolchain/build/src/newlib-gcc/newlib/libc/stdio/fflush.c:161
   12ba0:	40d60633          	sub	a2,a2,a3
/home/lucas/Documents/summerwork2015/riscv-material/riscv-tools/riscv-gnu-toolchain/build/src/newlib-gcc/newlib/libc/stdio/fflush.c:162
   12ba4:	00078663          	beqz	a5,12bb0 <_fflush_r+0xa0>
/home/lucas/Documents/summerwork2015/riscv-material/riscv-tools/riscv-gnu-toolchain/build/src/newlib-gcc/newlib/libc/stdio/fflush.c:163
   12ba8:	07042783          	lw	a5,112(s0)
   12bac:	40f60633          	sub	a2,a2,a5
/home/lucas/Documents/summerwork2015/riscv-material/riscv-tools/riscv-gnu-toolchain/build/src/newlib-gcc/newlib/libc/stdio/fflush.c:171
   12bb0:	03043583          	ld	a1,48(s0)
   12bb4:	00000693          	li	a3,0
   12bb8:	00098513          	mv	a0,s3
   12bbc:	000700e7          	jalr	a4
/home/lucas/Documents/summerwork2015/riscv-material/riscv-tools/riscv-gnu-toolchain/build/src/newlib-gcc/newlib/libc/stdio/fflush.c:172
   12bc0:	fff00793          	li	a5,-1
   12bc4:	14f50263          	beq	a0,a5,12d08 <_fflush_r+0x1f8>
/home/lucas/Documents/summerwork2015/riscv-material/riscv-tools/riscv-gnu-toolchain/build/src/newlib-gcc/newlib/libc/stdio/fflush.c:177
   12bc8:	01045683          	lhu	a3,16(s0)
   12bcc:	fffff7b7          	lui	a5,0xfffff
   12bd0:	7ff7879b          	addiw	a5,a5,2047
/home/lucas/Documents/summerwork2015/riscv-material/riscv-tools/riscv-gnu-toolchain/build/src/newlib-gcc/newlib/libc/stdio/fflush.c:179
   12bd4:	01843703          	ld	a4,24(s0)
/home/lucas/Documents/summerwork2015/riscv-material/riscv-tools/riscv-gnu-toolchain/build/src/newlib-gcc/newlib/libc/stdio/fflush.c:177
   12bd8:	00f6f7b3          	and	a5,a3,a5
   12bdc:	0107979b          	slliw	a5,a5,0x10
   12be0:	4107d79b          	sraiw	a5,a5,0x10
/home/lucas/Documents/summerwork2015/riscv-material/riscv-tools/riscv-gnu-toolchain/build/src/newlib-gcc/newlib/libc/stdio/fflush.c:179
   12be4:	00e43023          	sd	a4,0(s0)
/home/lucas/Documents/summerwork2015/riscv-material/riscv-tools/riscv-gnu-toolchain/build/src/newlib-gcc/newlib/libc/stdio/fflush.c:180
   12be8:	03379713          	slli	a4,a5,0x33
/home/lucas/Documents/summerwork2015/riscv-material/riscv-tools/riscv-gnu-toolchain/build/src/newlib-gcc/newlib/libc/stdio/fflush.c:177
   12bec:	00f41823          	sh	a5,16(s0)
/home/lucas/Documents/summerwork2015/riscv-material/riscv-tools/riscv-gnu-toolchain/build/src/newlib-gcc/newlib/libc/stdio/fflush.c:178
   12bf0:	00042423          	sw	zero,8(s0)
/home/lucas/Documents/summerwork2015/riscv-material/riscv-tools/riscv-gnu-toolchain/build/src/newlib-gcc/newlib/libc/stdio/fflush.c:180
   12bf4:	00075463          	bgez	a4,12bfc <_fflush_r+0xec>
/home/lucas/Documents/summerwork2015/riscv-material/riscv-tools/riscv-gnu-toolchain/build/src/newlib-gcc/newlib/libc/stdio/fflush.c:181
   12bf8:	08a42623          	sw	a0,140(s0)
/home/lucas/Documents/summerwork2015/riscv-material/riscv-tools/riscv-gnu-toolchain/build/src/newlib-gcc/newlib/libc/stdio/fflush.c:183
   12bfc:	05843583          	ld	a1,88(s0)
/home/lucas/Documents/summerwork2015/riscv-material/riscv-tools/riscv-gnu-toolchain/build/src/newlib-gcc/newlib/libc/stdio/fflush.c:182
   12c00:	0099a023          	sw	s1,0(s3)
/home/lucas/Documents/summerwork2015/riscv-material/riscv-tools/riscv-gnu-toolchain/build/src/newlib-gcc/newlib/libc/stdio/fflush.c:183
   12c04:	00058c63          	beqz	a1,12c1c <_fflush_r+0x10c>
/home/lucas/Documents/summerwork2015/riscv-material/riscv-tools/riscv-gnu-toolchain/build/src/newlib-gcc/newlib/libc/stdio/fflush.c:184
   12c08:	07440793          	addi	a5,s0,116
   12c0c:	00f58663          	beq	a1,a5,12c18 <_fflush_r+0x108>
/home/lucas/Documents/summerwork2015/riscv-material/riscv-tools/riscv-gnu-toolchain/build/src/newlib-gcc/newlib/libc/stdio/fflush.c:184 (discriminator 1)
   12c10:	00098513          	mv	a0,s3
   12c14:	8b5fe0ef          	jal	114c8 <_free_r>
/home/lucas/Documents/summerwork2015/riscv-material/riscv-tools/riscv-gnu-toolchain/build/src/newlib-gcc/newlib/libc/stdio/fflush.c:184 (discriminator 3)
   12c18:	04043c23          	sd	zero,88(s0)
/home/lucas/Documents/summerwork2015/riscv-material/riscv-tools/riscv-gnu-toolchain/build/src/newlib-gcc/newlib/libc/stdio/fflush.c:194
   12c1c:	00000513          	li	a0,0
/home/lucas/Documents/summerwork2015/riscv-material/riscv-tools/riscv-gnu-toolchain/build/src/newlib-gcc/newlib/libc/stdio/fflush.c:226
   12c20:	02813083          	ld	ra,40(sp)
   12c24:	02013403          	ld	s0,32(sp)
   12c28:	01813483          	ld	s1,24(sp)
   12c2c:	01013903          	ld	s2,16(sp)
   12c30:	00813983          	ld	s3,8(sp)
   12c34:	03010113          	addi	sp,sp,48
   12c38:	00008067          	ret
/home/lucas/Documents/summerwork2015/riscv-material/riscv-tools/riscv-gnu-toolchain/build/src/newlib-gcc/newlib/libc/stdio/fflush.c:196
   12c3c:	01843903          	ld	s2,24(s0)
   12c40:	fc090ee3          	beqz	s2,12c1c <_fflush_r+0x10c>
/home/lucas/Documents/summerwork2015/riscv-material/riscv-tools/riscv-gnu-toolchain/build/src/newlib-gcc/newlib/libc/stdio/fflush.c:202
   12c44:	00043483          	ld	s1,0(s0)
/home/lucas/Documents/summerwork2015/riscv-material/riscv-tools/riscv-gnu-toolchain/build/src/newlib-gcc/newlib/libc/stdio/fflush.c:210
   12c48:	00377793          	andi	a5,a4,3
/home/lucas/Documents/summerwork2015/riscv-material/riscv-tools/riscv-gnu-toolchain/build/src/newlib-gcc/newlib/libc/stdio/fflush.c:209
   12c4c:	01243023          	sd	s2,0(s0)
/home/lucas/Documents/summerwork2015/riscv-material/riscv-tools/riscv-gnu-toolchain/build/src/newlib-gcc/newlib/libc/stdio/fflush.c:202
   12c50:	412484bb          	subw	s1,s1,s2
/home/lucas/Documents/summerwork2015/riscv-material/riscv-tools/riscv-gnu-toolchain/build/src/newlib-gcc/newlib/libc/stdio/fflush.c:210
   12c54:	00000713          	li	a4,0
   12c58:	06078863          	beqz	a5,12cc8 <_fflush_r+0x1b8>
/home/lucas/Documents/summerwork2015/riscv-material/riscv-tools/riscv-gnu-toolchain/build/src/newlib-gcc/newlib/libc/stdio/fflush.c:210 (discriminator 4)
   12c5c:	00e42623          	sw	a4,12(s0)
/home/lucas/Documents/summerwork2015/riscv-material/riscv-tools/riscv-gnu-toolchain/build/src/newlib-gcc/newlib/libc/stdio/fflush.c:212
   12c60:	00904863          	bgtz	s1,12c70 <_fflush_r+0x160>
   12c64:	fb9ff06f          	j	12c1c <_fflush_r+0x10c>
/home/lucas/Documents/summerwork2015/riscv-material/riscv-tools/riscv-gnu-toolchain/build/src/newlib-gcc/newlib/libc/stdio/fflush.c:221
   12c68:	00f90933          	add	s2,s2,a5
/home/lucas/Documents/summerwork2015/riscv-material/riscv-tools/riscv-gnu-toolchain/build/src/newlib-gcc/newlib/libc/stdio/fflush.c:212
   12c6c:	fa9058e3          	blez	s1,12c1c <_fflush_r+0x10c>
/home/lucas/Documents/summerwork2015/riscv-material/riscv-tools/riscv-gnu-toolchain/build/src/newlib-gcc/newlib/libc/stdio/fflush.c:214
   12c70:	04043783          	ld	a5,64(s0)
   12c74:	03043583          	ld	a1,48(s0)
   12c78:	00048693          	mv	a3,s1
   12c7c:	00090613          	mv	a2,s2
   12c80:	00098513          	mv	a0,s3
   12c84:	000780e7          	jalr	a5
/home/lucas/Documents/summerwork2015/riscv-material/riscv-tools/riscv-gnu-toolchain/build/src/newlib-gcc/newlib/libc/stdio/fflush.c:221
   12c88:	00050793          	mv	a5,a0
/home/lucas/Documents/summerwork2015/riscv-material/riscv-tools/riscv-gnu-toolchain/build/src/newlib-gcc/newlib/libc/stdio/fflush.c:222
   12c8c:	40a484bb          	subw	s1,s1,a0
/home/lucas/Documents/summerwork2015/riscv-material/riscv-tools/riscv-gnu-toolchain/build/src/newlib-gcc/newlib/libc/stdio/fflush.c:215
   12c90:	fca04ce3          	bgtz	a0,12c68 <_fflush_r+0x158>
/home/lucas/Documents/summerwork2015/riscv-material/riscv-tools/riscv-gnu-toolchain/build/src/newlib-gcc/newlib/libc/stdio/fflush.c:217
   12c94:	01045783          	lhu	a5,16(s0)
/home/lucas/Documents/summerwork2015/riscv-material/riscv-tools/riscv-gnu-toolchain/build/src/newlib-gcc/newlib/libc/stdio/fflush.c:226
   12c98:	02813083          	ld	ra,40(sp)
/home/lucas/Documents/summerwork2015/riscv-material/riscv-tools/riscv-gnu-toolchain/build/src/newlib-gcc/newlib/libc/stdio/fflush.c:219
   12c9c:	fff00513          	li	a0,-1
/home/lucas/Documents/summerwork2015/riscv-material/riscv-tools/riscv-gnu-toolchain/build/src/newlib-gcc/newlib/libc/stdio/fflush.c:217
   12ca0:	0407e793          	ori	a5,a5,64
   12ca4:	00f41823          	sh	a5,16(s0)
/home/lucas/Documents/summerwork2015/riscv-material/riscv-tools/riscv-gnu-toolchain/build/src/newlib-gcc/newlib/libc/stdio/fflush.c:226
   12ca8:	01813483          	ld	s1,24(sp)
   12cac:	02013403          	ld	s0,32(sp)
   12cb0:	01013903          	ld	s2,16(sp)
   12cb4:	00813983          	ld	s3,8(sp)
   12cb8:	03010113          	addi	sp,sp,48
   12cbc:	00008067          	ret
/home/lucas/Documents/summerwork2015/riscv-material/riscv-tools/riscv-gnu-toolchain/build/src/newlib-gcc/newlib/libc/stdio/fflush.c:94 (discriminator 2)
   12cc0:	eb0fe0ef          	jal	11370 <__sinit>
   12cc4:	e79ff06f          	j	12b3c <_fflush_r+0x2c>
/home/lucas/Documents/summerwork2015/riscv-material/riscv-tools/riscv-gnu-toolchain/build/src/newlib-gcc/newlib/libc/stdio/fflush.c:210 (discriminator 1)
   12cc8:	02042703          	lw	a4,32(s0)
   12ccc:	f91ff06f          	j	12c5c <_fflush_r+0x14c>
/home/lucas/Documents/summerwork2015/riscv-material/riscv-tools/riscv-gnu-toolchain/build/src/newlib-gcc/newlib/libc/stdio/fflush.c:142
   12cd0:	03043583          	ld	a1,48(s0)
   12cd4:	00000613          	li	a2,0
   12cd8:	00100693          	li	a3,1
   12cdc:	00098513          	mv	a0,s3
   12ce0:	000700e7          	jalr	a4
/home/lucas/Documents/summerwork2015/riscv-material/riscv-tools/riscv-gnu-toolchain/build/src/newlib-gcc/newlib/libc/stdio/fflush.c:143
   12ce4:	fff00793          	li	a5,-1
/home/lucas/Documents/summerwork2015/riscv-material/riscv-tools/riscv-gnu-toolchain/build/src/newlib-gcc/newlib/libc/stdio/fflush.c:142
   12ce8:	00050613          	mv	a2,a0
/home/lucas/Documents/summerwork2015/riscv-material/riscv-tools/riscv-gnu-toolchain/build/src/newlib-gcc/newlib/libc/stdio/fflush.c:143
   12cec:	06f50a63          	beq	a0,a5,12d60 <_fflush_r+0x250>
   12cf0:	01045783          	lhu	a5,16(s0)
   12cf4:	04843703          	ld	a4,72(s0)
   12cf8:	e99ff06f          	j	12b90 <_fflush_r+0x80>
/home/lucas/Documents/summerwork2015/riscv-material/riscv-tools/riscv-gnu-toolchain/build/src/newlib-gcc/newlib/libc/stdio/fflush.c:116 (discriminator 2)
   12cfc:	07042703          	lw	a4,112(s0)
   12d00:	e6e046e3          	bgtz	a4,12b6c <_fflush_r+0x5c>
   12d04:	f19ff06f          	j	12c1c <_fflush_r+0x10c>
/home/lucas/Documents/summerwork2015/riscv-material/riscv-tools/riscv-gnu-toolchain/build/src/newlib-gcc/newlib/libc/stdio/fflush.c:172 (discriminator 1)
   12d08:	0009a703          	lw	a4,0(s3)
   12d0c:	01d00793          	li	a5,29
   12d10:	f8e7e2e3          	bltu	a5,a4,12c94 <_fflush_r+0x184>
   12d14:	204007b7          	lui	a5,0x20400
   12d18:	00178793          	addi	a5,a5,1 # 20400001 <_gp+0x203ea991>
   12d1c:	00e7d7b3          	srl	a5,a5,a4
   12d20:	0017f793          	andi	a5,a5,1
   12d24:	f60788e3          	beqz	a5,12c94 <_fflush_r+0x184>
/home/lucas/Documents/summerwork2015/riscv-material/riscv-tools/riscv-gnu-toolchain/build/src/newlib-gcc/newlib/libc/stdio/fflush.c:177
   12d28:	01045603          	lhu	a2,16(s0)
   12d2c:	fffff7b7          	lui	a5,0xfffff
   12d30:	7ff7879b          	addiw	a5,a5,2047
/home/lucas/Documents/summerwork2015/riscv-material/riscv-tools/riscv-gnu-toolchain/build/src/newlib-gcc/newlib/libc/stdio/fflush.c:179
   12d34:	01843683          	ld	a3,24(s0)
/home/lucas/Documents/summerwork2015/riscv-material/riscv-tools/riscv-gnu-toolchain/build/src/newlib-gcc/newlib/libc/stdio/fflush.c:177
   12d38:	00f677b3          	and	a5,a2,a5
   12d3c:	0107979b          	slliw	a5,a5,0x10
   12d40:	4107d79b          	sraiw	a5,a5,0x10
/home/lucas/Documents/summerwork2015/riscv-material/riscv-tools/riscv-gnu-toolchain/build/src/newlib-gcc/newlib/libc/stdio/fflush.c:179
   12d44:	00d43023          	sd	a3,0(s0)
/home/lucas/Documents/summerwork2015/riscv-material/riscv-tools/riscv-gnu-toolchain/build/src/newlib-gcc/newlib/libc/stdio/fflush.c:180
   12d48:	03379693          	slli	a3,a5,0x33
/home/lucas/Documents/summerwork2015/riscv-material/riscv-tools/riscv-gnu-toolchain/build/src/newlib-gcc/newlib/libc/stdio/fflush.c:177
   12d4c:	00f41823          	sh	a5,16(s0)
/home/lucas/Documents/summerwork2015/riscv-material/riscv-tools/riscv-gnu-toolchain/build/src/newlib-gcc/newlib/libc/stdio/fflush.c:178
   12d50:	00042423          	sw	zero,8(s0)
/home/lucas/Documents/summerwork2015/riscv-material/riscv-tools/riscv-gnu-toolchain/build/src/newlib-gcc/newlib/libc/stdio/fflush.c:180
   12d54:	ea06d4e3          	bgez	a3,12bfc <_fflush_r+0xec>
/home/lucas/Documents/summerwork2015/riscv-material/riscv-tools/riscv-gnu-toolchain/build/src/newlib-gcc/newlib/libc/stdio/fflush.c:180 (discriminator 2)
   12d58:	ea0712e3          	bnez	a4,12bfc <_fflush_r+0xec>
   12d5c:	e9dff06f          	j	12bf8 <_fflush_r+0xe8>
/home/lucas/Documents/summerwork2015/riscv-material/riscv-tools/riscv-gnu-toolchain/build/src/newlib-gcc/newlib/libc/stdio/fflush.c:143 (discriminator 1)
   12d60:	0009a783          	lw	a5,0(s3)
   12d64:	f80786e3          	beqz	a5,12cf0 <_fflush_r+0x1e0>
/home/lucas/Documents/summerwork2015/riscv-material/riscv-tools/riscv-gnu-toolchain/build/src/newlib-gcc/newlib/libc/stdio/fflush.c:146
   12d68:	01d00713          	li	a4,29
   12d6c:	00e78663          	beq	a5,a4,12d78 <_fflush_r+0x268>
/home/lucas/Documents/summerwork2015/riscv-material/riscv-tools/riscv-gnu-toolchain/build/src/newlib-gcc/newlib/libc/stdio/fflush.c:146 (discriminator 1)
   12d70:	01600713          	li	a4,22
   12d74:	00e79863          	bne	a5,a4,12d84 <_fflush_r+0x274>
/home/lucas/Documents/summerwork2015/riscv-material/riscv-tools/riscv-gnu-toolchain/build/src/newlib-gcc/newlib/libc/stdio/fflush.c:149
   12d78:	0099a023          	sw	s1,0(s3)
/home/lucas/Documents/summerwork2015/riscv-material/riscv-tools/riscv-gnu-toolchain/build/src/newlib-gcc/newlib/libc/stdio/fflush.c:148
   12d7c:	00000513          	li	a0,0
/home/lucas/Documents/summerwork2015/riscv-material/riscv-tools/riscv-gnu-toolchain/build/src/newlib-gcc/newlib/libc/stdio/fflush.c:149
   12d80:	ea1ff06f          	j	12c20 <_fflush_r+0x110>
/home/lucas/Documents/summerwork2015/riscv-material/riscv-tools/riscv-gnu-toolchain/build/src/newlib-gcc/newlib/libc/stdio/fflush.c:152
   12d84:	01045783          	lhu	a5,16(s0)
   12d88:	0407e793          	ori	a5,a5,64
   12d8c:	00f41823          	sh	a5,16(s0)
   12d90:	e91ff06f          	j	12c20 <_fflush_r+0x110>

0000000000012d94 <fflush>:
fflush():
/home/lucas/Documents/summerwork2015/riscv-material/riscv-tools/riscv-gnu-toolchain/build/src/newlib-gcc/newlib/libc/stdio/fflush.c:233
   12d94:	00050593          	mv	a1,a0
/home/lucas/Documents/summerwork2015/riscv-material/riscv-tools/riscv-gnu-toolchain/build/src/newlib-gcc/newlib/libc/stdio/fflush.c:234
   12d98:	00050663          	beqz	a0,12da4 <fflush+0x10>
/home/lucas/Documents/summerwork2015/riscv-material/riscv-tools/riscv-gnu-toolchain/build/src/newlib-gcc/newlib/libc/stdio/fflush.c:237
   12d9c:	8101b503          	ld	a0,-2032(gp) # 14e80 <_impure_ptr>
   12da0:	d71ff06f          	j	12b10 <_fflush_r>
/home/lucas/Documents/summerwork2015/riscv-material/riscv-tools/riscv-gnu-toolchain/build/src/newlib-gcc/newlib/libc/stdio/fflush.c:235
   12da4:	8081b503          	ld	a0,-2040(gp) # 14e78 <_global_impure_ptr>
   12da8:	000135b7          	lui	a1,0x13
   12dac:	b1058593          	addi	a1,a1,-1264 # 12b10 <_fflush_r>
   12db0:	f95fe06f          	j	11d44 <_fwalk_reent>

0000000000012db4 <__smakebuf_r>:
__smakebuf_r():
/home/lucas/Documents/summerwork2015/riscv-material/riscv-tools/riscv-gnu-toolchain/build/src/newlib-gcc/newlib/libc/stdio/makebuf.c:50
   12db4:	01059783          	lh	a5,16(a1)
/home/lucas/Documents/summerwork2015/riscv-material/riscv-tools/riscv-gnu-toolchain/build/src/newlib-gcc/newlib/libc/stdio/makebuf.c:41
   12db8:	f5010113          	addi	sp,sp,-176
   12dbc:	08913c23          	sd	s1,152(sp)
/home/lucas/Documents/summerwork2015/riscv-material/riscv-tools/riscv-gnu-toolchain/build/src/newlib-gcc/newlib/libc/stdio/makebuf.c:50
   12dc0:	03079493          	slli	s1,a5,0x30
   12dc4:	0304d493          	srli	s1,s1,0x30
   12dc8:	0024f713          	andi	a4,s1,2
/home/lucas/Documents/summerwork2015/riscv-material/riscv-tools/riscv-gnu-toolchain/build/src/newlib-gcc/newlib/libc/stdio/makebuf.c:41
   12dcc:	0a113423          	sd	ra,168(sp)
   12dd0:	0a813023          	sd	s0,160(sp)
   12dd4:	09213823          	sd	s2,144(sp)
   12dd8:	09313423          	sd	s3,136(sp)
/home/lucas/Documents/summerwork2015/riscv-material/riscv-tools/riscv-gnu-toolchain/build/src/newlib-gcc/newlib/libc/stdio/makebuf.c:50
   12ddc:	0e071063          	bnez	a4,12ebc <__smakebuf_r+0x108>
   12de0:	00050913          	mv	s2,a0
/home/lucas/Documents/summerwork2015/riscv-material/riscv-tools/riscv-gnu-toolchain/build/src/newlib-gcc/newlib/libc/stdio/makebuf.c:59
   12de4:	01259503          	lh	a0,18(a1)
   12de8:	00058413          	mv	s0,a1
   12dec:	04054c63          	bltz	a0,12e44 <__smakebuf_r+0x90>
/home/lucas/Documents/summerwork2015/riscv-material/riscv-tools/riscv-gnu-toolchain/build/src/newlib-gcc/newlib/libc/stdio/makebuf.c:59 (discriminator 1)
   12df0:	00010593          	mv	a1,sp
   12df4:	20c000ef          	jal	13000 <fstat>
   12df8:	04054063          	bltz	a0,12e38 <__smakebuf_r+0x84>
/home/lucas/Documents/summerwork2015/riscv-material/riscv-tools/riscv-gnu-toolchain/build/src/newlib-gcc/newlib/libc/stdio/makebuf.c:73
   12dfc:	01012703          	lw	a4,16(sp)
   12e00:	0000f7b7          	lui	a5,0xf
   12e04:	ffffe9b7          	lui	s3,0xffffe
   12e08:	00f777b3          	and	a5,a4,a5
   12e0c:	013789bb          	addw	s3,a5,s3
/home/lucas/Documents/summerwork2015/riscv-material/riscv-tools/riscv-gnu-toolchain/build/src/newlib-gcc/newlib/libc/stdio/makebuf.c:83
   12e10:	00008737          	lui	a4,0x8
/home/lucas/Documents/summerwork2015/riscv-material/riscv-tools/riscv-gnu-toolchain/build/src/newlib-gcc/newlib/libc/stdio/makebuf.c:73
   12e14:	0019b993          	seqz	s3,s3
/home/lucas/Documents/summerwork2015/riscv-material/riscv-tools/riscv-gnu-toolchain/build/src/newlib-gcc/newlib/libc/stdio/makebuf.c:83
   12e18:	0ce78a63          	beq	a5,a4,12eec <__smakebuf_r+0x138>
/home/lucas/Documents/summerwork2015/riscv-material/riscv-tools/riscv-gnu-toolchain/build/src/newlib-gcc/newlib/libc/stdio/makebuf.c:93
   12e1c:	01045703          	lhu	a4,16(s0)
   12e20:	000017b7          	lui	a5,0x1
   12e24:	8007879b          	addiw	a5,a5,-2048
   12e28:	00f767b3          	or	a5,a4,a5
   12e2c:	00f41823          	sh	a5,16(s0)
/home/lucas/Documents/summerwork2015/riscv-material/riscv-tools/riscv-gnu-toolchain/build/src/newlib-gcc/newlib/libc/stdio/makebuf.c:77
   12e30:	40000493          	li	s1,1024
   12e34:	0340006f          	j	12e68 <__smakebuf_r+0xb4>
   12e38:	01041783          	lh	a5,16(s0)
   12e3c:	03079493          	slli	s1,a5,0x30
   12e40:	0304d493          	srli	s1,s1,0x30
/home/lucas/Documents/summerwork2015/riscv-material/riscv-tools/riscv-gnu-toolchain/build/src/newlib-gcc/newlib/libc/stdio/makebuf.c:67
   12e44:	03849493          	slli	s1,s1,0x38
/home/lucas/Documents/summerwork2015/riscv-material/riscv-tools/riscv-gnu-toolchain/build/src/newlib-gcc/newlib/libc/stdio/makebuf.c:69
   12e48:	00001737          	lui	a4,0x1
/home/lucas/Documents/summerwork2015/riscv-material/riscv-tools/riscv-gnu-toolchain/build/src/newlib-gcc/newlib/libc/stdio/makebuf.c:67
   12e4c:	43f4d493          	srai	s1,s1,0x3f
/home/lucas/Documents/summerwork2015/riscv-material/riscv-tools/riscv-gnu-toolchain/build/src/newlib-gcc/newlib/libc/stdio/makebuf.c:69
   12e50:	8007071b          	addiw	a4,a4,-2048
/home/lucas/Documents/summerwork2015/riscv-material/riscv-tools/riscv-gnu-toolchain/build/src/newlib-gcc/newlib/libc/stdio/makebuf.c:67
   12e54:	c404f493          	andi	s1,s1,-960
/home/lucas/Documents/summerwork2015/riscv-material/riscv-tools/riscv-gnu-toolchain/build/src/newlib-gcc/newlib/libc/stdio/makebuf.c:69
   12e58:	00e7e7b3          	or	a5,a5,a4
/home/lucas/Documents/summerwork2015/riscv-material/riscv-tools/riscv-gnu-toolchain/build/src/newlib-gcc/newlib/libc/stdio/makebuf.c:67
   12e5c:	40048493          	addi	s1,s1,1024
/home/lucas/Documents/summerwork2015/riscv-material/riscv-tools/riscv-gnu-toolchain/build/src/newlib-gcc/newlib/libc/stdio/makebuf.c:69
   12e60:	00f41823          	sh	a5,16(s0)
/home/lucas/Documents/summerwork2015/riscv-material/riscv-tools/riscv-gnu-toolchain/build/src/newlib-gcc/newlib/libc/stdio/makebuf.c:62
   12e64:	00000993          	li	s3,0
/home/lucas/Documents/summerwork2015/riscv-material/riscv-tools/riscv-gnu-toolchain/build/src/newlib-gcc/newlib/libc/stdio/makebuf.c:95
   12e68:	00048593          	mv	a1,s1
   12e6c:	00090513          	mv	a0,s2
   12e70:	ddcfd0ef          	jal	1044c <_malloc_r>
   12e74:	0c050063          	beqz	a0,12f34 <__smakebuf_r+0x180>
/home/lucas/Documents/summerwork2015/riscv-material/riscv-tools/riscv-gnu-toolchain/build/src/newlib-gcc/newlib/libc/stdio/makebuf.c:107
   12e78:	01045783          	lhu	a5,16(s0)
/home/lucas/Documents/summerwork2015/riscv-material/riscv-tools/riscv-gnu-toolchain/build/src/newlib-gcc/newlib/libc/stdio/makebuf.c:106
   12e7c:	00011737          	lui	a4,0x11
   12e80:	04470713          	addi	a4,a4,68 # 11044 <_cleanup_r>
/home/lucas/Documents/summerwork2015/riscv-material/riscv-tools/riscv-gnu-toolchain/build/src/newlib-gcc/newlib/libc/stdio/makebuf.c:107
   12e84:	0807e793          	ori	a5,a5,128
/home/lucas/Documents/summerwork2015/riscv-material/riscv-tools/riscv-gnu-toolchain/build/src/newlib-gcc/newlib/libc/stdio/makebuf.c:106
   12e88:	04e93c23          	sd	a4,88(s2)
/home/lucas/Documents/summerwork2015/riscv-material/riscv-tools/riscv-gnu-toolchain/build/src/newlib-gcc/newlib/libc/stdio/makebuf.c:107
   12e8c:	00f41823          	sh	a5,16(s0)
/home/lucas/Documents/summerwork2015/riscv-material/riscv-tools/riscv-gnu-toolchain/build/src/newlib-gcc/newlib/libc/stdio/makebuf.c:108
   12e90:	00a43023          	sd	a0,0(s0)
   12e94:	00a43c23          	sd	a0,24(s0)
/home/lucas/Documents/summerwork2015/riscv-material/riscv-tools/riscv-gnu-toolchain/build/src/newlib-gcc/newlib/libc/stdio/makebuf.c:109
   12e98:	02942023          	sw	s1,32(s0)
/home/lucas/Documents/summerwork2015/riscv-material/riscv-tools/riscv-gnu-toolchain/build/src/newlib-gcc/newlib/libc/stdio/makebuf.c:110
   12e9c:	06099e63          	bnez	s3,12f18 <__smakebuf_r+0x164>
/home/lucas/Documents/summerwork2015/riscv-material/riscv-tools/riscv-gnu-toolchain/build/src/newlib-gcc/newlib/libc/stdio/makebuf.c:113
   12ea0:	0a813083          	ld	ra,168(sp)
   12ea4:	0a013403          	ld	s0,160(sp)
   12ea8:	09813483          	ld	s1,152(sp)
   12eac:	09013903          	ld	s2,144(sp)
   12eb0:	08813983          	ld	s3,136(sp)
   12eb4:	0b010113          	addi	sp,sp,176
   12eb8:	00008067          	ret
   12ebc:	0a813083          	ld	ra,168(sp)
/home/lucas/Documents/summerwork2015/riscv-material/riscv-tools/riscv-gnu-toolchain/build/src/newlib-gcc/newlib/libc/stdio/makebuf.c:52
   12ec0:	07758793          	addi	a5,a1,119
   12ec4:	00f5b023          	sd	a5,0(a1)
   12ec8:	00f5bc23          	sd	a5,24(a1)
/home/lucas/Documents/summerwork2015/riscv-material/riscv-tools/riscv-gnu-toolchain/build/src/newlib-gcc/newlib/libc/stdio/makebuf.c:53
   12ecc:	00100793          	li	a5,1
/home/lucas/Documents/summerwork2015/riscv-material/riscv-tools/riscv-gnu-toolchain/build/src/newlib-gcc/newlib/libc/stdio/makebuf.c:113
   12ed0:	0a013403          	ld	s0,160(sp)
   12ed4:	09813483          	ld	s1,152(sp)
   12ed8:	09013903          	ld	s2,144(sp)
   12edc:	08813983          	ld	s3,136(sp)
/home/lucas/Documents/summerwork2015/riscv-material/riscv-tools/riscv-gnu-toolchain/build/src/newlib-gcc/newlib/libc/stdio/makebuf.c:53
   12ee0:	02f5a023          	sw	a5,32(a1)
/home/lucas/Documents/summerwork2015/riscv-material/riscv-tools/riscv-gnu-toolchain/build/src/newlib-gcc/newlib/libc/stdio/makebuf.c:113
   12ee4:	0b010113          	addi	sp,sp,176
   12ee8:	00008067          	ret
/home/lucas/Documents/summerwork2015/riscv-material/riscv-tools/riscv-gnu-toolchain/build/src/newlib-gcc/newlib/libc/stdio/makebuf.c:83 (discriminator 1)
   12eec:	04843703          	ld	a4,72(s0)
   12ef0:	000137b7          	lui	a5,0x13
   12ef4:	83878793          	addi	a5,a5,-1992 # 12838 <__sseek>
   12ef8:	f2f712e3          	bne	a4,a5,12e1c <__smakebuf_r+0x68>
/home/lucas/Documents/summerwork2015/riscv-material/riscv-tools/riscv-gnu-toolchain/build/src/newlib-gcc/newlib/libc/stdio/makebuf.c:85
   12efc:	01045783          	lhu	a5,16(s0)
/home/lucas/Documents/summerwork2015/riscv-material/riscv-tools/riscv-gnu-toolchain/build/src/newlib-gcc/newlib/libc/stdio/makebuf.c:89
   12f00:	40000713          	li	a4,1024
   12f04:	08e42423          	sw	a4,136(s0)
/home/lucas/Documents/summerwork2015/riscv-material/riscv-tools/riscv-gnu-toolchain/build/src/newlib-gcc/newlib/libc/stdio/makebuf.c:85
   12f08:	00e7e7b3          	or	a5,a5,a4
   12f0c:	00f41823          	sh	a5,16(s0)
/home/lucas/Documents/summerwork2015/riscv-material/riscv-tools/riscv-gnu-toolchain/build/src/newlib-gcc/newlib/libc/stdio/makebuf.c:77
   12f10:	40000493          	li	s1,1024
/home/lucas/Documents/summerwork2015/riscv-material/riscv-tools/riscv-gnu-toolchain/build/src/newlib-gcc/newlib/libc/stdio/makebuf.c:89
   12f14:	f55ff06f          	j	12e68 <__smakebuf_r+0xb4>
/home/lucas/Documents/summerwork2015/riscv-material/riscv-tools/riscv-gnu-toolchain/build/src/newlib-gcc/newlib/libc/stdio/makebuf.c:110 (discriminator 1)
   12f18:	01241503          	lh	a0,18(s0)
   12f1c:	270000ef          	jal	1318c <isatty>
   12f20:	f80500e3          	beqz	a0,12ea0 <__smakebuf_r+0xec>
/home/lucas/Documents/summerwork2015/riscv-material/riscv-tools/riscv-gnu-toolchain/build/src/newlib-gcc/newlib/libc/stdio/makebuf.c:111
   12f24:	01045783          	lhu	a5,16(s0)
   12f28:	0017e793          	ori	a5,a5,1
   12f2c:	00f41823          	sh	a5,16(s0)
   12f30:	f71ff06f          	j	12ea0 <__smakebuf_r+0xec>
/home/lucas/Documents/summerwork2015/riscv-material/riscv-tools/riscv-gnu-toolchain/build/src/newlib-gcc/newlib/libc/stdio/makebuf.c:97
   12f34:	01041783          	lh	a5,16(s0)
   12f38:	2007f713          	andi	a4,a5,512
   12f3c:	f60712e3          	bnez	a4,12ea0 <__smakebuf_r+0xec>
/home/lucas/Documents/summerwork2015/riscv-material/riscv-tools/riscv-gnu-toolchain/build/src/newlib-gcc/newlib/libc/stdio/makebuf.c:99
   12f40:	0027e793          	ori	a5,a5,2
/home/lucas/Documents/summerwork2015/riscv-material/riscv-tools/riscv-gnu-toolchain/build/src/newlib-gcc/newlib/libc/stdio/makebuf.c:100
   12f44:	07740713          	addi	a4,s0,119
/home/lucas/Documents/summerwork2015/riscv-material/riscv-tools/riscv-gnu-toolchain/build/src/newlib-gcc/newlib/libc/stdio/makebuf.c:99
   12f48:	00f41823          	sh	a5,16(s0)
/home/lucas/Documents/summerwork2015/riscv-material/riscv-tools/riscv-gnu-toolchain/build/src/newlib-gcc/newlib/libc/stdio/makebuf.c:101
   12f4c:	00100793          	li	a5,1
/home/lucas/Documents/summerwork2015/riscv-material/riscv-tools/riscv-gnu-toolchain/build/src/newlib-gcc/newlib/libc/stdio/makebuf.c:100
   12f50:	00e43023          	sd	a4,0(s0)
   12f54:	00e43c23          	sd	a4,24(s0)
/home/lucas/Documents/summerwork2015/riscv-material/riscv-tools/riscv-gnu-toolchain/build/src/newlib-gcc/newlib/libc/stdio/makebuf.c:101
   12f58:	02f42023          	sw	a5,32(s0)
   12f5c:	f45ff06f          	j	12ea0 <__smakebuf_r+0xec>

0000000000012f60 <__syscall_error>:
__syscall_error():
/home/lucas/Documents/summerwork2015/riscv-material/riscv-tools/riscv-gnu-toolchain/build/src/newlib-gcc/libgloss/riscv/syscalls.c:95
   12f60:	ff010113          	addi	sp,sp,-16
   12f64:	00113423          	sd	ra,8(sp)
   12f68:	00813023          	sd	s0,0(sp)
   12f6c:	00050413          	mv	s0,a0
/home/lucas/Documents/summerwork2015/riscv-material/riscv-tools/riscv-gnu-toolchain/build/src/newlib-gcc/libgloss/riscv/syscalls.c:96
   12f70:	3c8000ef          	jal	13338 <__errno>
/home/lucas/Documents/summerwork2015/riscv-material/riscv-tools/riscv-gnu-toolchain/build/src/newlib-gcc/libgloss/riscv/syscalls.c:98
   12f74:	00813083          	ld	ra,8(sp)
/home/lucas/Documents/summerwork2015/riscv-material/riscv-tools/riscv-gnu-toolchain/build/src/newlib-gcc/libgloss/riscv/syscalls.c:96
   12f78:	408007bb          	negw	a5,s0
   12f7c:	00f52023          	sw	a5,0(a0)
/home/lucas/Documents/summerwork2015/riscv-material/riscv-tools/riscv-gnu-toolchain/build/src/newlib-gcc/libgloss/riscv/syscalls.c:98
   12f80:	00013403          	ld	s0,0(sp)
   12f84:	fff00513          	li	a0,-1
   12f88:	01010113          	addi	sp,sp,16
   12f8c:	00008067          	ret

0000000000012f90 <open>:
__internal_syscall():
/home/lucas/Documents/summerwork2015/riscv-material/riscv-tools/riscv-gnu-toolchain/build/src/newlib-gcc/libgloss/riscv/machine/syscall.h:52
   12f90:	00000693          	li	a3,0
/home/lucas/Documents/summerwork2015/riscv-material/riscv-tools/riscv-gnu-toolchain/build/src/newlib-gcc/libgloss/riscv/machine/syscall.h:53
   12f94:	40000893          	li	a7,1024
/home/lucas/Documents/summerwork2015/riscv-material/riscv-tools/riscv-gnu-toolchain/build/src/newlib-gcc/libgloss/riscv/machine/syscall.h:55
   12f98:	00000073          	ecall
   12f9c:	fc0542e3          	bltz	a0,12f60 <__syscall_error>
open():
/home/lucas/Documents/summerwork2015/riscv-material/riscv-tools/riscv-gnu-toolchain/build/src/newlib-gcc/libgloss/riscv/syscalls.c:103
   12fa0:	0005051b          	sext.w	a0,a0
   12fa4:	00008067          	ret

0000000000012fa8 <openat>:
__internal_syscall():
/home/lucas/Documents/summerwork2015/riscv-material/riscv-tools/riscv-gnu-toolchain/build/src/newlib-gcc/libgloss/riscv/machine/syscall.h:53
   12fa8:	03800893          	li	a7,56
/home/lucas/Documents/summerwork2015/riscv-material/riscv-tools/riscv-gnu-toolchain/build/src/newlib-gcc/libgloss/riscv/machine/syscall.h:55
   12fac:	00000073          	ecall
   12fb0:	fa0548e3          	bltz	a0,12f60 <__syscall_error>
openat():
/home/lucas/Documents/summerwork2015/riscv-material/riscv-tools/riscv-gnu-toolchain/build/src/newlib-gcc/libgloss/riscv/syscalls.c:112
   12fb4:	0005051b          	sext.w	a0,a0
   12fb8:	00008067          	ret

0000000000012fbc <lseek>:
__internal_syscall():
/home/lucas/Documents/summerwork2015/riscv-material/riscv-tools/riscv-gnu-toolchain/build/src/newlib-gcc/libgloss/riscv/machine/syscall.h:52
   12fbc:	00000693          	li	a3,0
/home/lucas/Documents/summerwork2015/riscv-material/riscv-tools/riscv-gnu-toolchain/build/src/newlib-gcc/libgloss/riscv/machine/syscall.h:53
   12fc0:	03e00893          	li	a7,62
/home/lucas/Documents/summerwork2015/riscv-material/riscv-tools/riscv-gnu-toolchain/build/src/newlib-gcc/libgloss/riscv/machine/syscall.h:55
   12fc4:	00000073          	ecall
   12fc8:	f8054ce3          	bltz	a0,12f60 <__syscall_error>
lseek():
/home/lucas/Documents/summerwork2015/riscv-material/riscv-tools/riscv-gnu-toolchain/build/src/newlib-gcc/libgloss/riscv/syscalls.c:122
   12fcc:	00008067          	ret

0000000000012fd0 <read>:
__internal_syscall():
/home/lucas/Documents/summerwork2015/riscv-material/riscv-tools/riscv-gnu-toolchain/build/src/newlib-gcc/libgloss/riscv/machine/syscall.h:52
   12fd0:	00000693          	li	a3,0
/home/lucas/Documents/summerwork2015/riscv-material/riscv-tools/riscv-gnu-toolchain/build/src/newlib-gcc/libgloss/riscv/machine/syscall.h:53
   12fd4:	03f00893          	li	a7,63
/home/lucas/Documents/summerwork2015/riscv-material/riscv-tools/riscv-gnu-toolchain/build/src/newlib-gcc/libgloss/riscv/machine/syscall.h:55
   12fd8:	00000073          	ecall
   12fdc:	f80542e3          	bltz	a0,12f60 <__syscall_error>
read():
/home/lucas/Documents/summerwork2015/riscv-material/riscv-tools/riscv-gnu-toolchain/build/src/newlib-gcc/libgloss/riscv/syscalls.c:132
   12fe0:	0005051b          	sext.w	a0,a0
   12fe4:	00008067          	ret

0000000000012fe8 <write>:
__internal_syscall():
/home/lucas/Documents/summerwork2015/riscv-material/riscv-tools/riscv-gnu-toolchain/build/src/newlib-gcc/libgloss/riscv/machine/syscall.h:52
   12fe8:	00000693          	li	a3,0
/home/lucas/Documents/summerwork2015/riscv-material/riscv-tools/riscv-gnu-toolchain/build/src/newlib-gcc/libgloss/riscv/machine/syscall.h:53
   12fec:	04000893          	li	a7,64
/home/lucas/Documents/summerwork2015/riscv-material/riscv-tools/riscv-gnu-toolchain/build/src/newlib-gcc/libgloss/riscv/machine/syscall.h:55
   12ff0:	00000073          	ecall
   12ff4:	f60546e3          	bltz	a0,12f60 <__syscall_error>
write():
/home/lucas/Documents/summerwork2015/riscv-material/riscv-tools/riscv-gnu-toolchain/build/src/newlib-gcc/libgloss/riscv/syscalls.c:142
   12ff8:	0005051b          	sext.w	a0,a0
   12ffc:	00008067          	ret

0000000000013000 <fstat>:
__internal_syscall():
/home/lucas/Documents/summerwork2015/riscv-material/riscv-tools/riscv-gnu-toolchain/build/src/newlib-gcc/libgloss/riscv/machine/syscall.h:51
   13000:	00000613          	li	a2,0
/home/lucas/Documents/summerwork2015/riscv-material/riscv-tools/riscv-gnu-toolchain/build/src/newlib-gcc/libgloss/riscv/machine/syscall.h:52
   13004:	00000693          	li	a3,0
/home/lucas/Documents/summerwork2015/riscv-material/riscv-tools/riscv-gnu-toolchain/build/src/newlib-gcc/libgloss/riscv/machine/syscall.h:53
   13008:	05000893          	li	a7,80
/home/lucas/Documents/summerwork2015/riscv-material/riscv-tools/riscv-gnu-toolchain/build/src/newlib-gcc/libgloss/riscv/machine/syscall.h:55
   1300c:	00000073          	ecall
   13010:	f40548e3          	bltz	a0,12f60 <__syscall_error>
fstat():
/home/lucas/Documents/summerwork2015/riscv-material/riscv-tools/riscv-gnu-toolchain/build/src/newlib-gcc/libgloss/riscv/syscalls.c:153
   13014:	0005051b          	sext.w	a0,a0
   13018:	00008067          	ret

000000000001301c <stat>:
__internal_syscall():
/home/lucas/Documents/summerwork2015/riscv-material/riscv-tools/riscv-gnu-toolchain/build/src/newlib-gcc/libgloss/riscv/machine/syscall.h:51
   1301c:	00000613          	li	a2,0
/home/lucas/Documents/summerwork2015/riscv-material/riscv-tools/riscv-gnu-toolchain/build/src/newlib-gcc/libgloss/riscv/machine/syscall.h:52
   13020:	00000693          	li	a3,0
/home/lucas/Documents/summerwork2015/riscv-material/riscv-tools/riscv-gnu-toolchain/build/src/newlib-gcc/libgloss/riscv/machine/syscall.h:53
   13024:	40e00893          	li	a7,1038
/home/lucas/Documents/summerwork2015/riscv-material/riscv-tools/riscv-gnu-toolchain/build/src/newlib-gcc/libgloss/riscv/machine/syscall.h:55
   13028:	00000073          	ecall
   1302c:	f2054ae3          	bltz	a0,12f60 <__syscall_error>
stat():
/home/lucas/Documents/summerwork2015/riscv-material/riscv-tools/riscv-gnu-toolchain/build/src/newlib-gcc/libgloss/riscv/syscalls.c:163
   13030:	0005051b          	sext.w	a0,a0
   13034:	00008067          	ret

0000000000013038 <lstat>:
__internal_syscall():
/home/lucas/Documents/summerwork2015/riscv-material/riscv-tools/riscv-gnu-toolchain/build/src/newlib-gcc/libgloss/riscv/machine/syscall.h:51
   13038:	00000613          	li	a2,0
/home/lucas/Documents/summerwork2015/riscv-material/riscv-tools/riscv-gnu-toolchain/build/src/newlib-gcc/libgloss/riscv/machine/syscall.h:52
   1303c:	00000693          	li	a3,0
/home/lucas/Documents/summerwork2015/riscv-material/riscv-tools/riscv-gnu-toolchain/build/src/newlib-gcc/libgloss/riscv/machine/syscall.h:53
   13040:	40f00893          	li	a7,1039
/home/lucas/Documents/summerwork2015/riscv-material/riscv-tools/riscv-gnu-toolchain/build/src/newlib-gcc/libgloss/riscv/machine/syscall.h:55
   13044:	00000073          	ecall
   13048:	f0054ce3          	bltz	a0,12f60 <__syscall_error>
lstat():
/home/lucas/Documents/summerwork2015/riscv-material/riscv-tools/riscv-gnu-toolchain/build/src/newlib-gcc/libgloss/riscv/syscalls.c:173
   1304c:	0005051b          	sext.w	a0,a0
   13050:	00008067          	ret

0000000000013054 <fstatat>:
__internal_syscall():
/home/lucas/Documents/summerwork2015/riscv-material/riscv-tools/riscv-gnu-toolchain/build/src/newlib-gcc/libgloss/riscv/machine/syscall.h:53
   13054:	04f00893          	li	a7,79
/home/lucas/Documents/summerwork2015/riscv-material/riscv-tools/riscv-gnu-toolchain/build/src/newlib-gcc/libgloss/riscv/machine/syscall.h:55
   13058:	00000073          	ecall
   1305c:	f00542e3          	bltz	a0,12f60 <__syscall_error>
fstatat():
/home/lucas/Documents/summerwork2015/riscv-material/riscv-tools/riscv-gnu-toolchain/build/src/newlib-gcc/libgloss/riscv/syscalls.c:183
   13060:	0005051b          	sext.w	a0,a0
   13064:	00008067          	ret

0000000000013068 <access>:
__internal_syscall():
/home/lucas/Documents/summerwork2015/riscv-material/riscv-tools/riscv-gnu-toolchain/build/src/newlib-gcc/libgloss/riscv/machine/syscall.h:51
   13068:	00000613          	li	a2,0
/home/lucas/Documents/summerwork2015/riscv-material/riscv-tools/riscv-gnu-toolchain/build/src/newlib-gcc/libgloss/riscv/machine/syscall.h:52
   1306c:	00000693          	li	a3,0
/home/lucas/Documents/summerwork2015/riscv-material/riscv-tools/riscv-gnu-toolchain/build/src/newlib-gcc/libgloss/riscv/machine/syscall.h:53
   13070:	40900893          	li	a7,1033
/home/lucas/Documents/summerwork2015/riscv-material/riscv-tools/riscv-gnu-toolchain/build/src/newlib-gcc/libgloss/riscv/machine/syscall.h:55
   13074:	00000073          	ecall
   13078:	ee0544e3          	bltz	a0,12f60 <__syscall_error>
access():
/home/lucas/Documents/summerwork2015/riscv-material/riscv-tools/riscv-gnu-toolchain/build/src/newlib-gcc/libgloss/riscv/syscalls.c:193
   1307c:	0005051b          	sext.w	a0,a0
   13080:	00008067          	ret

0000000000013084 <faccessat>:
__internal_syscall():
/home/lucas/Documents/summerwork2015/riscv-material/riscv-tools/riscv-gnu-toolchain/build/src/newlib-gcc/libgloss/riscv/machine/syscall.h:53
   13084:	03000893          	li	a7,48
/home/lucas/Documents/summerwork2015/riscv-material/riscv-tools/riscv-gnu-toolchain/build/src/newlib-gcc/libgloss/riscv/machine/syscall.h:55
   13088:	00000073          	ecall
   1308c:	ec054ae3          	bltz	a0,12f60 <__syscall_error>
faccessat():
/home/lucas/Documents/summerwork2015/riscv-material/riscv-tools/riscv-gnu-toolchain/build/src/newlib-gcc/libgloss/riscv/syscalls.c:203
   13090:	0005051b          	sext.w	a0,a0
   13094:	00008067          	ret

0000000000013098 <close>:
__internal_syscall():
/home/lucas/Documents/summerwork2015/riscv-material/riscv-tools/riscv-gnu-toolchain/build/src/newlib-gcc/libgloss/riscv/machine/syscall.h:50
   13098:	00000593          	li	a1,0
/home/lucas/Documents/summerwork2015/riscv-material/riscv-tools/riscv-gnu-toolchain/build/src/newlib-gcc/libgloss/riscv/machine/syscall.h:51
   1309c:	00000613          	li	a2,0
/home/lucas/Documents/summerwork2015/riscv-material/riscv-tools/riscv-gnu-toolchain/build/src/newlib-gcc/libgloss/riscv/machine/syscall.h:52
   130a0:	00000693          	li	a3,0
/home/lucas/Documents/summerwork2015/riscv-material/riscv-tools/riscv-gnu-toolchain/build/src/newlib-gcc/libgloss/riscv/machine/syscall.h:53
   130a4:	03900893          	li	a7,57
/home/lucas/Documents/summerwork2015/riscv-material/riscv-tools/riscv-gnu-toolchain/build/src/newlib-gcc/libgloss/riscv/machine/syscall.h:55
   130a8:	00000073          	ecall
   130ac:	ea054ae3          	bltz	a0,12f60 <__syscall_error>
close():
/home/lucas/Documents/summerwork2015/riscv-material/riscv-tools/riscv-gnu-toolchain/build/src/newlib-gcc/libgloss/riscv/syscalls.c:213
   130b0:	0005051b          	sext.w	a0,a0
   130b4:	00008067          	ret

00000000000130b8 <link>:
__internal_syscall():
/home/lucas/Documents/summerwork2015/riscv-material/riscv-tools/riscv-gnu-toolchain/build/src/newlib-gcc/libgloss/riscv/machine/syscall.h:51
   130b8:	00000613          	li	a2,0
/home/lucas/Documents/summerwork2015/riscv-material/riscv-tools/riscv-gnu-toolchain/build/src/newlib-gcc/libgloss/riscv/machine/syscall.h:52
   130bc:	00000693          	li	a3,0
/home/lucas/Documents/summerwork2015/riscv-material/riscv-tools/riscv-gnu-toolchain/build/src/newlib-gcc/libgloss/riscv/machine/syscall.h:53
   130c0:	40100893          	li	a7,1025
/home/lucas/Documents/summerwork2015/riscv-material/riscv-tools/riscv-gnu-toolchain/build/src/newlib-gcc/libgloss/riscv/machine/syscall.h:55
   130c4:	00000073          	ecall
   130c8:	e8054ce3          	bltz	a0,12f60 <__syscall_error>
link():
/home/lucas/Documents/summerwork2015/riscv-material/riscv-tools/riscv-gnu-toolchain/build/src/newlib-gcc/libgloss/riscv/syscalls.c:223
   130cc:	0005051b          	sext.w	a0,a0
   130d0:	00008067          	ret

00000000000130d4 <unlink>:
__internal_syscall():
/home/lucas/Documents/summerwork2015/riscv-material/riscv-tools/riscv-gnu-toolchain/build/src/newlib-gcc/libgloss/riscv/machine/syscall.h:50
   130d4:	00000593          	li	a1,0
/home/lucas/Documents/summerwork2015/riscv-material/riscv-tools/riscv-gnu-toolchain/build/src/newlib-gcc/libgloss/riscv/machine/syscall.h:51
   130d8:	00000613          	li	a2,0
/home/lucas/Documents/summerwork2015/riscv-material/riscv-tools/riscv-gnu-toolchain/build/src/newlib-gcc/libgloss/riscv/machine/syscall.h:52
   130dc:	00000693          	li	a3,0
/home/lucas/Documents/summerwork2015/riscv-material/riscv-tools/riscv-gnu-toolchain/build/src/newlib-gcc/libgloss/riscv/machine/syscall.h:53
   130e0:	40200893          	li	a7,1026
/home/lucas/Documents/summerwork2015/riscv-material/riscv-tools/riscv-gnu-toolchain/build/src/newlib-gcc/libgloss/riscv/machine/syscall.h:55
   130e4:	00000073          	ecall
   130e8:	e6054ce3          	bltz	a0,12f60 <__syscall_error>
unlink():
/home/lucas/Documents/summerwork2015/riscv-material/riscv-tools/riscv-gnu-toolchain/build/src/newlib-gcc/libgloss/riscv/syscalls.c:233
   130ec:	0005051b          	sext.w	a0,a0
   130f0:	00008067          	ret

00000000000130f4 <execve>:
execve():
/home/lucas/Documents/summerwork2015/riscv-material/riscv-tools/riscv-gnu-toolchain/build/src/newlib-gcc/libgloss/riscv/syscalls.c:242
   130f4:	ff010113          	addi	sp,sp,-16
   130f8:	00113423          	sd	ra,8(sp)
/home/lucas/Documents/summerwork2015/riscv-material/riscv-tools/riscv-gnu-toolchain/build/src/newlib-gcc/libgloss/riscv/syscalls.c:243
   130fc:	23c000ef          	jal	13338 <__errno>
/home/lucas/Documents/summerwork2015/riscv-material/riscv-tools/riscv-gnu-toolchain/build/src/newlib-gcc/libgloss/riscv/syscalls.c:245
   13100:	00813083          	ld	ra,8(sp)
/home/lucas/Documents/summerwork2015/riscv-material/riscv-tools/riscv-gnu-toolchain/build/src/newlib-gcc/libgloss/riscv/syscalls.c:243
   13104:	00c00793          	li	a5,12
   13108:	00f52023          	sw	a5,0(a0)
/home/lucas/Documents/summerwork2015/riscv-material/riscv-tools/riscv-gnu-toolchain/build/src/newlib-gcc/libgloss/riscv/syscalls.c:245
   1310c:	01010113          	addi	sp,sp,16
   13110:	fff00513          	li	a0,-1
   13114:	00008067          	ret

0000000000013118 <fork>:
fork():
/home/lucas/Documents/summerwork2015/riscv-material/riscv-tools/riscv-gnu-toolchain/build/src/newlib-gcc/libgloss/riscv/syscalls.c:254
   13118:	ff010113          	addi	sp,sp,-16
   1311c:	00113423          	sd	ra,8(sp)
/home/lucas/Documents/summerwork2015/riscv-material/riscv-tools/riscv-gnu-toolchain/build/src/newlib-gcc/libgloss/riscv/syscalls.c:255
   13120:	218000ef          	jal	13338 <__errno>
/home/lucas/Documents/summerwork2015/riscv-material/riscv-tools/riscv-gnu-toolchain/build/src/newlib-gcc/libgloss/riscv/syscalls.c:257
   13124:	00813083          	ld	ra,8(sp)
/home/lucas/Documents/summerwork2015/riscv-material/riscv-tools/riscv-gnu-toolchain/build/src/newlib-gcc/libgloss/riscv/syscalls.c:255
   13128:	00b00793          	li	a5,11
   1312c:	00f52023          	sw	a5,0(a0)
/home/lucas/Documents/summerwork2015/riscv-material/riscv-tools/riscv-gnu-toolchain/build/src/newlib-gcc/libgloss/riscv/syscalls.c:257
   13130:	01010113          	addi	sp,sp,16
   13134:	fff00513          	li	a0,-1
   13138:	00008067          	ret

000000000001313c <getpid>:
getpid():
/home/lucas/Documents/summerwork2015/riscv-material/riscv-tools/riscv-gnu-toolchain/build/src/newlib-gcc/libgloss/riscv/syscalls.c:269
   1313c:	00100513          	li	a0,1
   13140:	00008067          	ret

0000000000013144 <kill>:
kill():
/home/lucas/Documents/summerwork2015/riscv-material/riscv-tools/riscv-gnu-toolchain/build/src/newlib-gcc/libgloss/riscv/syscalls.c:278
   13144:	ff010113          	addi	sp,sp,-16
   13148:	00113423          	sd	ra,8(sp)
/home/lucas/Documents/summerwork2015/riscv-material/riscv-tools/riscv-gnu-toolchain/build/src/newlib-gcc/libgloss/riscv/syscalls.c:279
   1314c:	1ec000ef          	jal	13338 <__errno>
/home/lucas/Documents/summerwork2015/riscv-material/riscv-tools/riscv-gnu-toolchain/build/src/newlib-gcc/libgloss/riscv/syscalls.c:281
   13150:	00813083          	ld	ra,8(sp)
/home/lucas/Documents/summerwork2015/riscv-material/riscv-tools/riscv-gnu-toolchain/build/src/newlib-gcc/libgloss/riscv/syscalls.c:279
   13154:	01600793          	li	a5,22
   13158:	00f52023          	sw	a5,0(a0)
/home/lucas/Documents/summerwork2015/riscv-material/riscv-tools/riscv-gnu-toolchain/build/src/newlib-gcc/libgloss/riscv/syscalls.c:281
   1315c:	01010113          	addi	sp,sp,16
   13160:	fff00513          	li	a0,-1
   13164:	00008067          	ret

0000000000013168 <wait>:
wait():
/home/lucas/Documents/summerwork2015/riscv-material/riscv-tools/riscv-gnu-toolchain/build/src/newlib-gcc/libgloss/riscv/syscalls.c:290
   13168:	ff010113          	addi	sp,sp,-16
   1316c:	00113423          	sd	ra,8(sp)
/home/lucas/Documents/summerwork2015/riscv-material/riscv-tools/riscv-gnu-toolchain/build/src/newlib-gcc/libgloss/riscv/syscalls.c:291
   13170:	1c8000ef          	jal	13338 <__errno>
/home/lucas/Documents/summerwork2015/riscv-material/riscv-tools/riscv-gnu-toolchain/build/src/newlib-gcc/libgloss/riscv/syscalls.c:293
   13174:	00813083          	ld	ra,8(sp)
/home/lucas/Documents/summerwork2015/riscv-material/riscv-tools/riscv-gnu-toolchain/build/src/newlib-gcc/libgloss/riscv/syscalls.c:291
   13178:	00a00793          	li	a5,10
   1317c:	00f52023          	sw	a5,0(a0)
/home/lucas/Documents/summerwork2015/riscv-material/riscv-tools/riscv-gnu-toolchain/build/src/newlib-gcc/libgloss/riscv/syscalls.c:293
   13180:	01010113          	addi	sp,sp,16
   13184:	fff00513          	li	a0,-1
   13188:	00008067          	ret

000000000001318c <isatty>:
isatty():
/home/lucas/Documents/summerwork2015/riscv-material/riscv-tools/riscv-gnu-toolchain/build/src/newlib-gcc/libgloss/riscv/syscalls.c:303
   1318c:	f8010113          	addi	sp,sp,-128
__internal_syscall():
/home/lucas/Documents/summerwork2015/riscv-material/riscv-tools/riscv-gnu-toolchain/build/src/newlib-gcc/libgloss/riscv/machine/syscall.h:50
   13190:	00010593          	mv	a1,sp
/home/lucas/Documents/summerwork2015/riscv-material/riscv-tools/riscv-gnu-toolchain/build/src/newlib-gcc/libgloss/riscv/machine/syscall.h:51
   13194:	00000613          	li	a2,0
/home/lucas/Documents/summerwork2015/riscv-material/riscv-tools/riscv-gnu-toolchain/build/src/newlib-gcc/libgloss/riscv/machine/syscall.h:52
   13198:	00000693          	li	a3,0
/home/lucas/Documents/summerwork2015/riscv-material/riscv-tools/riscv-gnu-toolchain/build/src/newlib-gcc/libgloss/riscv/machine/syscall.h:53
   1319c:	05000893          	li	a7,80
/home/lucas/Documents/summerwork2015/riscv-material/riscv-tools/riscv-gnu-toolchain/build/src/newlib-gcc/libgloss/riscv/machine/syscall.h:55
   131a0:	00000073          	ecall
   131a4:	da054ee3          	bltz	a0,12f60 <__syscall_error>
isatty():
/home/lucas/Documents/summerwork2015/riscv-material/riscv-tools/riscv-gnu-toolchain/build/src/newlib-gcc/libgloss/riscv/syscalls.c:306
   131a8:	fff00793          	li	a5,-1
fstat():
/home/lucas/Documents/summerwork2015/riscv-material/riscv-tools/riscv-gnu-toolchain/build/src/newlib-gcc/libgloss/riscv/syscalls.c:152
   131ac:	0005051b          	sext.w	a0,a0
isatty():
/home/lucas/Documents/summerwork2015/riscv-material/riscv-tools/riscv-gnu-toolchain/build/src/newlib-gcc/libgloss/riscv/syscalls.c:306
   131b0:	00f50863          	beq	a0,a5,131c0 <isatty+0x34>
/home/lucas/Documents/summerwork2015/riscv-material/riscv-tools/riscv-gnu-toolchain/build/src/newlib-gcc/libgloss/riscv/syscalls.c:306 (discriminator 1)
   131b4:	01012503          	lw	a0,16(sp)
   131b8:	40d5551b          	sraiw	a0,a0,0xd
   131bc:	00157513          	andi	a0,a0,1
/home/lucas/Documents/summerwork2015/riscv-material/riscv-tools/riscv-gnu-toolchain/build/src/newlib-gcc/libgloss/riscv/syscalls.c:307 (discriminator 4)
   131c0:	08010113          	addi	sp,sp,128
   131c4:	00008067          	ret

00000000000131c8 <times>:
times():
/home/lucas/Documents/summerwork2015/riscv-material/riscv-tools/riscv-gnu-toolchain/build/src/newlib-gcc/libgloss/riscv/syscalls.c:329
   131c8:	8c018293          	addi	t0,gp,-1856 # 14f30 <t0.2273>
   131cc:	0002b703          	ld	a4,0(t0) # 121bc <memset+0xb4>
/home/lucas/Documents/summerwork2015/riscv-material/riscv-tools/riscv-gnu-toolchain/build/src/newlib-gcc/libgloss/riscv/syscalls.c:326
   131d0:	ff010113          	addi	sp,sp,-16
   131d4:	00050813          	mv	a6,a0
/home/lucas/Documents/summerwork2015/riscv-material/riscv-tools/riscv-gnu-toolchain/build/src/newlib-gcc/libgloss/riscv/syscalls.c:329
   131d8:	02071063          	bnez	a4,131f8 <times+0x30>
__internal_syscall():
/home/lucas/Documents/summerwork2015/riscv-material/riscv-tools/riscv-gnu-toolchain/build/src/newlib-gcc/libgloss/riscv/machine/syscall.h:49
   131dc:	8c018513          	addi	a0,gp,-1856 # 14f30 <t0.2273>
/home/lucas/Documents/summerwork2015/riscv-material/riscv-tools/riscv-gnu-toolchain/build/src/newlib-gcc/libgloss/riscv/machine/syscall.h:50
   131e0:	00000593          	li	a1,0
/home/lucas/Documents/summerwork2015/riscv-material/riscv-tools/riscv-gnu-toolchain/build/src/newlib-gcc/libgloss/riscv/machine/syscall.h:51
   131e4:	00000613          	li	a2,0
/home/lucas/Documents/summerwork2015/riscv-material/riscv-tools/riscv-gnu-toolchain/build/src/newlib-gcc/libgloss/riscv/machine/syscall.h:52
   131e8:	00000693          	li	a3,0
/home/lucas/Documents/summerwork2015/riscv-material/riscv-tools/riscv-gnu-toolchain/build/src/newlib-gcc/libgloss/riscv/machine/syscall.h:53
   131ec:	0a900893          	li	a7,169
/home/lucas/Documents/summerwork2015/riscv-material/riscv-tools/riscv-gnu-toolchain/build/src/newlib-gcc/libgloss/riscv/machine/syscall.h:55
   131f0:	00000073          	ecall
   131f4:	d60546e3          	bltz	a0,12f60 <__syscall_error>
/home/lucas/Documents/summerwork2015/riscv-material/riscv-tools/riscv-gnu-toolchain/build/src/newlib-gcc/libgloss/riscv/machine/syscall.h:49
   131f8:	00010513          	mv	a0,sp
/home/lucas/Documents/summerwork2015/riscv-material/riscv-tools/riscv-gnu-toolchain/build/src/newlib-gcc/libgloss/riscv/machine/syscall.h:50
   131fc:	00000593          	li	a1,0
/home/lucas/Documents/summerwork2015/riscv-material/riscv-tools/riscv-gnu-toolchain/build/src/newlib-gcc/libgloss/riscv/machine/syscall.h:51
   13200:	00000613          	li	a2,0
/home/lucas/Documents/summerwork2015/riscv-material/riscv-tools/riscv-gnu-toolchain/build/src/newlib-gcc/libgloss/riscv/machine/syscall.h:52
   13204:	00000693          	li	a3,0
/home/lucas/Documents/summerwork2015/riscv-material/riscv-tools/riscv-gnu-toolchain/build/src/newlib-gcc/libgloss/riscv/machine/syscall.h:53
   13208:	0a900893          	li	a7,169
/home/lucas/Documents/summerwork2015/riscv-material/riscv-tools/riscv-gnu-toolchain/build/src/newlib-gcc/libgloss/riscv/machine/syscall.h:55
   1320c:	00000073          	ecall
   13210:	d40548e3          	bltz	a0,12f60 <__syscall_error>
times():
/home/lucas/Documents/summerwork2015/riscv-material/riscv-tools/riscv-gnu-toolchain/build/src/newlib-gcc/libgloss/riscv/syscalls.c:336
   13214:	0002b703          	ld	a4,0(t0)
   13218:	00013783          	ld	a5,0(sp)
/home/lucas/Documents/summerwork2015/riscv-material/riscv-tools/riscv-gnu-toolchain/build/src/newlib-gcc/libgloss/riscv/syscalls.c:340
   1321c:	fff00513          	li	a0,-1
/home/lucas/Documents/summerwork2015/riscv-material/riscv-tools/riscv-gnu-toolchain/build/src/newlib-gcc/libgloss/riscv/syscalls.c:337
   13220:	00083823          	sd	zero,16(a6)
/home/lucas/Documents/summerwork2015/riscv-material/riscv-tools/riscv-gnu-toolchain/build/src/newlib-gcc/libgloss/riscv/syscalls.c:336
   13224:	40e786b3          	sub	a3,a5,a4
   13228:	000f47b7          	lui	a5,0xf4
   1322c:	24078793          	addi	a5,a5,576 # f4240 <_gp+0xdebd0>
   13230:	02f68733          	mul	a4,a3,a5
   13234:	0082b683          	ld	a3,8(t0)
   13238:	00813783          	ld	a5,8(sp)
/home/lucas/Documents/summerwork2015/riscv-material/riscv-tools/riscv-gnu-toolchain/build/src/newlib-gcc/libgloss/riscv/syscalls.c:337
   1323c:	00083c23          	sd	zero,24(a6)
   13240:	00083423          	sd	zero,8(a6)
/home/lucas/Documents/summerwork2015/riscv-material/riscv-tools/riscv-gnu-toolchain/build/src/newlib-gcc/libgloss/riscv/syscalls.c:336
   13244:	40d787b3          	sub	a5,a5,a3
/home/lucas/Documents/summerwork2015/riscv-material/riscv-tools/riscv-gnu-toolchain/build/src/newlib-gcc/libgloss/riscv/syscalls.c:340
   13248:	01010113          	addi	sp,sp,16
/home/lucas/Documents/summerwork2015/riscv-material/riscv-tools/riscv-gnu-toolchain/build/src/newlib-gcc/libgloss/riscv/syscalls.c:336
   1324c:	00f707b3          	add	a5,a4,a5
   13250:	00f83023          	sd	a5,0(a6)
/home/lucas/Documents/summerwork2015/riscv-material/riscv-tools/riscv-gnu-toolchain/build/src/newlib-gcc/libgloss/riscv/syscalls.c:340
   13254:	00008067          	ret

0000000000013258 <gettimeofday>:
__internal_syscall():
/home/lucas/Documents/summerwork2015/riscv-material/riscv-tools/riscv-gnu-toolchain/build/src/newlib-gcc/libgloss/riscv/machine/syscall.h:50
   13258:	00000593          	li	a1,0
/home/lucas/Documents/summerwork2015/riscv-material/riscv-tools/riscv-gnu-toolchain/build/src/newlib-gcc/libgloss/riscv/machine/syscall.h:51
   1325c:	00000613          	li	a2,0
/home/lucas/Documents/summerwork2015/riscv-material/riscv-tools/riscv-gnu-toolchain/build/src/newlib-gcc/libgloss/riscv/machine/syscall.h:52
   13260:	00000693          	li	a3,0
/home/lucas/Documents/summerwork2015/riscv-material/riscv-tools/riscv-gnu-toolchain/build/src/newlib-gcc/libgloss/riscv/machine/syscall.h:53
   13264:	0a900893          	li	a7,169
/home/lucas/Documents/summerwork2015/riscv-material/riscv-tools/riscv-gnu-toolchain/build/src/newlib-gcc/libgloss/riscv/machine/syscall.h:55
   13268:	00000073          	ecall
   1326c:	ce054ae3          	bltz	a0,12f60 <__syscall_error>
gettimeofday():
/home/lucas/Documents/summerwork2015/riscv-material/riscv-tools/riscv-gnu-toolchain/build/src/newlib-gcc/libgloss/riscv/syscalls.c:350
   13270:	0005051b          	sext.w	a0,a0
   13274:	00008067          	ret

0000000000013278 <ftime>:
ftime():
/home/lucas/Documents/summerwork2015/riscv-material/riscv-tools/riscv-gnu-toolchain/build/src/newlib-gcc/libgloss/riscv/syscalls.c:359
   13278:	00051423          	sh	zero,8(a0)
   1327c:	00053023          	sd	zero,0(a0)
/home/lucas/Documents/summerwork2015/riscv-material/riscv-tools/riscv-gnu-toolchain/build/src/newlib-gcc/libgloss/riscv/syscalls.c:361
   13280:	00000513          	li	a0,0
   13284:	00008067          	ret

0000000000013288 <utime>:
utime():
/home/lucas/Documents/summerwork2015/riscv-material/riscv-tools/riscv-gnu-toolchain/build/src/newlib-gcc/libgloss/riscv/syscalls.c:371
   13288:	fff00513          	li	a0,-1
   1328c:	00008067          	ret

0000000000013290 <chown>:
chown():
/home/lucas/Documents/summerwork2015/riscv-material/riscv-tools/riscv-gnu-toolchain/build/src/newlib-gcc/libgloss/riscv/syscalls.c:381
   13290:	fff00513          	li	a0,-1
   13294:	00008067          	ret

0000000000013298 <chmod>:
chmod():
/home/lucas/Documents/summerwork2015/riscv-material/riscv-tools/riscv-gnu-toolchain/build/src/newlib-gcc/libgloss/riscv/syscalls.c:391
   13298:	fff00513          	li	a0,-1
   1329c:	00008067          	ret

00000000000132a0 <chdir>:
chdir():
/home/lucas/Documents/summerwork2015/riscv-material/riscv-tools/riscv-gnu-toolchain/build/src/newlib-gcc/libgloss/riscv/syscalls.c:401
   132a0:	fff00513          	li	a0,-1
   132a4:	00008067          	ret

00000000000132a8 <getcwd>:
getcwd():
/home/lucas/Documents/summerwork2015/riscv-material/riscv-tools/riscv-gnu-toolchain/build/src/newlib-gcc/libgloss/riscv/syscalls.c:411
   132a8:	00000513          	li	a0,0
   132ac:	00008067          	ret

00000000000132b0 <sysconf>:
sysconf():
/home/lucas/Documents/summerwork2015/riscv-material/riscv-tools/riscv-gnu-toolchain/build/src/newlib-gcc/libgloss/riscv/syscalls.c:420
   132b0:	00200793          	li	a5,2
   132b4:	00f51863          	bne	a0,a5,132c4 <sysconf+0x14>
/home/lucas/Documents/summerwork2015/riscv-material/riscv-tools/riscv-gnu-toolchain/build/src/newlib-gcc/libgloss/riscv/syscalls.c:423
   132b8:	000f4537          	lui	a0,0xf4
   132bc:	24050513          	addi	a0,a0,576 # f4240 <_gp+0xdebd0>
/home/lucas/Documents/summerwork2015/riscv-material/riscv-tools/riscv-gnu-toolchain/build/src/newlib-gcc/libgloss/riscv/syscalls.c:427
   132c0:	00008067          	ret
/home/lucas/Documents/summerwork2015/riscv-material/riscv-tools/riscv-gnu-toolchain/build/src/newlib-gcc/libgloss/riscv/syscalls.c:426
   132c4:	fff00513          	li	a0,-1
   132c8:	00008067          	ret

00000000000132cc <sbrk>:
sbrk():
/home/lucas/Documents/summerwork2015/riscv-material/riscv-tools/riscv-gnu-toolchain/build/src/newlib-gcc/libgloss/riscv/syscalls.c:442
   132cc:	8581b703          	ld	a4,-1960(gp) # 14ec8 <heap_end.2311>
/home/lucas/Documents/summerwork2015/riscv-material/riscv-tools/riscv-gnu-toolchain/build/src/newlib-gcc/libgloss/riscv/syscalls.c:438
   132d0:	00050793          	mv	a5,a0
/home/lucas/Documents/summerwork2015/riscv-material/riscv-tools/riscv-gnu-toolchain/build/src/newlib-gcc/libgloss/riscv/syscalls.c:442
   132d4:	00071663          	bnez	a4,132e0 <sbrk+0x14>
/home/lucas/Documents/summerwork2015/riscv-material/riscv-tools/riscv-gnu-toolchain/build/src/newlib-gcc/libgloss/riscv/syscalls.c:443
   132d8:	8d018713          	addi	a4,gp,-1840 # 14f40 <_end>
   132dc:	84e1bc23          	sd	a4,-1960(gp) # 14ec8 <heap_end.2311>
__internal_syscall():
/home/lucas/Documents/summerwork2015/riscv-material/riscv-tools/riscv-gnu-toolchain/build/src/newlib-gcc/libgloss/riscv/machine/syscall.h:49
   132e0:	00e78533          	add	a0,a5,a4
/home/lucas/Documents/summerwork2015/riscv-material/riscv-tools/riscv-gnu-toolchain/build/src/newlib-gcc/libgloss/riscv/machine/syscall.h:50
   132e4:	00000593          	li	a1,0
/home/lucas/Documents/summerwork2015/riscv-material/riscv-tools/riscv-gnu-toolchain/build/src/newlib-gcc/libgloss/riscv/machine/syscall.h:51
   132e8:	00000613          	li	a2,0
/home/lucas/Documents/summerwork2015/riscv-material/riscv-tools/riscv-gnu-toolchain/build/src/newlib-gcc/libgloss/riscv/machine/syscall.h:52
   132ec:	00000693          	li	a3,0
/home/lucas/Documents/summerwork2015/riscv-material/riscv-tools/riscv-gnu-toolchain/build/src/newlib-gcc/libgloss/riscv/machine/syscall.h:53
   132f0:	0d600893          	li	a7,214
/home/lucas/Documents/summerwork2015/riscv-material/riscv-tools/riscv-gnu-toolchain/build/src/newlib-gcc/libgloss/riscv/machine/syscall.h:55
   132f4:	00000073          	ecall
   132f8:	c60544e3          	bltz	a0,12f60 <__syscall_error>
sbrk():
/home/lucas/Documents/summerwork2015/riscv-material/riscv-tools/riscv-gnu-toolchain/build/src/newlib-gcc/libgloss/riscv/syscalls.c:444
   132fc:	8581b683          	ld	a3,-1960(gp) # 14ec8 <heap_end.2311>
/home/lucas/Documents/summerwork2015/riscv-material/riscv-tools/riscv-gnu-toolchain/build/src/newlib-gcc/libgloss/riscv/syscalls.c:445
   13300:	fff00713          	li	a4,-1
/home/lucas/Documents/summerwork2015/riscv-material/riscv-tools/riscv-gnu-toolchain/build/src/newlib-gcc/libgloss/riscv/syscalls.c:444
   13304:	00d787b3          	add	a5,a5,a3
   13308:	00f51663          	bne	a0,a5,13314 <sbrk+0x48>
/home/lucas/Documents/summerwork2015/riscv-material/riscv-tools/riscv-gnu-toolchain/build/src/newlib-gcc/libgloss/riscv/syscalls.c:447
   1330c:	84a1bc23          	sd	a0,-1960(gp) # 14ec8 <heap_end.2311>
/home/lucas/Documents/summerwork2015/riscv-material/riscv-tools/riscv-gnu-toolchain/build/src/newlib-gcc/libgloss/riscv/syscalls.c:448
   13310:	00068713          	mv	a4,a3
/home/lucas/Documents/summerwork2015/riscv-material/riscv-tools/riscv-gnu-toolchain/build/src/newlib-gcc/libgloss/riscv/syscalls.c:449
   13314:	00070513          	mv	a0,a4
   13318:	00008067          	ret

000000000001331c <_exit>:
__internal_syscall():
/home/lucas/Documents/summerwork2015/riscv-material/riscv-tools/riscv-gnu-toolchain/build/src/newlib-gcc/libgloss/riscv/machine/syscall.h:50
   1331c:	00000593          	li	a1,0
/home/lucas/Documents/summerwork2015/riscv-material/riscv-tools/riscv-gnu-toolchain/build/src/newlib-gcc/libgloss/riscv/machine/syscall.h:51
   13320:	00000613          	li	a2,0
/home/lucas/Documents/summerwork2015/riscv-material/riscv-tools/riscv-gnu-toolchain/build/src/newlib-gcc/libgloss/riscv/machine/syscall.h:52
   13324:	00000693          	li	a3,0
/home/lucas/Documents/summerwork2015/riscv-material/riscv-tools/riscv-gnu-toolchain/build/src/newlib-gcc/libgloss/riscv/machine/syscall.h:53
   13328:	05d00893          	li	a7,93
/home/lucas/Documents/summerwork2015/riscv-material/riscv-tools/riscv-gnu-toolchain/build/src/newlib-gcc/libgloss/riscv/machine/syscall.h:55
   1332c:	00000073          	ecall
   13330:	c20548e3          	bltz	a0,12f60 <__syscall_error>
   13334:	0000006f          	j	13334 <_exit+0x18>

0000000000013338 <__errno>:
__errno():
/home/lucas/Documents/summerwork2015/riscv-material/riscv-tools/riscv-gnu-toolchain/build/src/newlib-gcc/newlib/libc/errno/errno.c:14
   13338:	8101b503          	ld	a0,-2032(gp) # 14e80 <_impure_ptr>
   1333c:	00008067          	ret

0000000000013340 <main>:
main():
   13340:	fe010113          	addi	sp,sp,-32
   13344:	00800513          	li	a0,8
   13348:	00113c23          	sd	ra,24(sp)
   1334c:	00813823          	sd	s0,16(sp)
   13350:	00913423          	sd	s1,8(sp)
   13354:	8e0fd0ef          	jal	10434 <malloc>
   13358:	04050a63          	beqz	a0,133ac <main+0x6c>
   1335c:	00050413          	mv	s0,a0
   13360:	dd9fc0ef          	jal	10138 <_Z8check_lrPl>
   13364:	00050493          	mv	s1,a0
   13368:	00040513          	mv	a0,s0
   1336c:	e35fc0ef          	jal	101a0 <_Z8check_scPl>
   13370:	00048c63          	beqz	s1,13388 <main+0x48>
   13374:	00050a63          	beqz	a0,13388 <main+0x48>
   13378:	00013537          	lui	a0,0x13
   1337c:	4a050513          	addi	a0,a0,1184 # 134a0 <main+0x160>
   13380:	951fd0ef          	jal	10cd0 <puts>
   13384:	0100006f          	j	13394 <main+0x54>
   13388:	00013537          	lui	a0,0x13
   1338c:	4c050513          	addi	a0,a0,1216 # 134c0 <main+0x180>
   13390:	941fd0ef          	jal	10cd0 <puts>
   13394:	01813083          	ld	ra,24(sp)
   13398:	00000513          	li	a0,0
   1339c:	01013403          	ld	s0,16(sp)
   133a0:	00813483          	ld	s1,8(sp)
   133a4:	02010113          	addi	sp,sp,32
   133a8:	00008067          	ret
   133ac:	8101b783          	ld	a5,-2032(gp) # 14e80 <_impure_ptr>
   133b0:	00013537          	lui	a0,0x13
   133b4:	02900613          	li	a2,41
   133b8:	0187b683          	ld	a3,24(a5)
   133bc:	00100593          	li	a1,1
   133c0:	47050513          	addi	a0,a0,1136 # 13470 <main+0x130>
   133c4:	f5dfc0ef          	jal	10320 <fwrite>
   133c8:	fcdff06f          	j	13394 <main+0x54>
